---
triple:          'arm64-apple-darwin'
binary-path:     search
relocations:
  - { offsetInCU: 0x52, offset: 0x52, size: 0x8, addend: 0x0, symName: __ZL14TagsRecognized, symObjAddr: 0x8FD20, symBinAddr: 0x10002C000, symSize: 0x0 }
  - { offsetInCU: 0x140, offset: 0x140, size: 0x8, addend: 0x0, symName: _frontier, symObjAddr: 0x905D0, symBinAddr: 0x10002E2E0, symSize: 0x0 }
  - { offsetInCU: 0xBBFA, offset: 0xBBFA, size: 0x8, addend: 0x0, symName: __ZNSt3__114__copy_alignedB7v160006INS_6vectorIbNS_9allocatorIbEEEELb0EEENS_14__bit_iteratorIT_Lb0EXLi0EEEENS5_IS6_XT0_EXLi0EEEES8_S7_, symObjAddr: 0x2AC8, symBinAddr: 0x10000489C, symSize: 0x278 }
  - { offsetInCU: 0xBD28, offset: 0xBD28, size: 0x8, addend: 0x0, symName: __ZNSt3__16copy_nB7v160006IPmmS1_EENS_9enable_ifIXsr33__is_cpp17_random_access_iteratorIT_EE5valueET1_E4typeES3_T0_S4_, symObjAddr: 0x32AC, symBinAddr: 0x100005080, symSize: 0x44 }
  - { offsetInCU: 0xBDCF, offset: 0xBDCF, size: 0x8, addend: 0x0, symName: __ZNSt3__116__copy_unalignedB7v160006INS_6vectorIbNS_9allocatorIbEEEELb0EEENS_14__bit_iteratorIT_Lb0EXLi0EEEENS5_IS6_XT0_EXLi0EEEES8_S7_, symObjAddr: 0x2D40, symBinAddr: 0x100004B14, symSize: 0x540 }
  - { offsetInCU: 0xBF4D, offset: 0xBF4D, size: 0x8, addend: 0x0, symName: __ZNSt3__114__copy_alignedB7v160006INS_6vectorIbNS_9allocatorIbEEEELb1EEENS_14__bit_iteratorIT_Lb0EXLi0EEEENS5_IS6_XT0_EXLi0EEEES8_S7_, symObjAddr: 0x39D4, symBinAddr: 0x1000057A8, symSize: 0x268 }
  - { offsetInCU: 0xC079, offset: 0xC079, size: 0x8, addend: 0x0, symName: __ZNSt3__16copy_nB7v160006IPKmmPmEENS_9enable_ifIXsr33__is_cpp17_random_access_iteratorIT_EE5valueET1_E4typeES5_T0_S6_, symObjAddr: 0x41A4, symBinAddr: 0x100005F78, symSize: 0x44 }
  - { offsetInCU: 0xC120, offset: 0xC120, size: 0x8, addend: 0x0, symName: __ZNSt3__116__copy_unalignedB7v160006INS_6vectorIbNS_9allocatorIbEEEELb1EEENS_14__bit_iteratorIT_Lb0EXLi0EEEENS5_IS6_XT0_EXLi0EEEES8_S7_, symObjAddr: 0x3C3C, symBinAddr: 0x100005A10, symSize: 0x520 }
  - { offsetInCU: 0xC2A0, offset: 0xC2A0, size: 0x8, addend: 0x0, symName: __ZNSt3__113__fill_n_trueB7v160006INS_6vectorIbNS_9allocatorIbEEEEEEvNS_14__bit_iteratorIT_Lb0EXLi0EEEENS6_9size_typeE, symObjAddr: 0x48EC, symBinAddr: 0x1000066C0, symSize: 0x160 }
  - { offsetInCU: 0xC365, offset: 0xC365, size: 0x8, addend: 0x0, symName: __ZNSt3__114__fill_n_falseB7v160006INS_6vectorIbNS_9allocatorIbEEEEEEvNS_14__bit_iteratorIT_Lb0EXLi0EEEENS6_9size_typeE, symObjAddr: 0x4A4C, symBinAddr: 0x100006820, symSize: 0x15C }
  - { offsetInCU: 0xFB3D, offset: 0xFB3D, size: 0x8, addend: 0x0, symName: __ZNSt3__14endlB7v160006IcNS_11char_traitsIcEEEERNS_13basic_ostreamIT_T0_EES7_, symObjAddr: 0x548, symBinAddr: 0x10000231C, symSize: 0x58 }
  - { offsetInCU: 0xFB7D, offset: 0xFB7D, size: 0x8, addend: 0x0, symName: __ZNSt3__14copyB7v160006INS_6vectorIbNS_9allocatorIbEEEELb1EEENS_14__bit_iteratorIT_Lb0EXLi0EEEENS5_IS6_XT0_EXLi0EEEES8_S7_, symObjAddr: 0x1CDC, symBinAddr: 0x100003AB0, symSize: 0xD4 }
  - { offsetInCU: 0xFBDD, offset: 0xFBDD, size: 0x8, addend: 0x0, symName: __ZNSt3__16fill_nB7v160006INS_6vectorIbNS_9allocatorIbEEEEEEvNS_14__bit_iteratorIT_Lb0EXLi0EEEENS6_9size_typeEb, symObjAddr: 0x1ED4, symBinAddr: 0x100003CA8, symSize: 0x94 }
  - { offsetInCU: 0xFC4B, offset: 0xFC4B, size: 0x8, addend: 0x0, symName: __ZNSt3__125__debug_db_invalidate_allB7v160006INS_6vectorIbNS_9allocatorIbEEEEEEvPT_, symObjAddr: 0x25C0, symBinAddr: 0x100004394, symSize: 0x10 }
  - { offsetInCU: 0xFE7E, offset: 0xFE7E, size: 0x8, addend: 0x0, symName: __ZNSt3__120__throw_length_errorB7v160006EPKc, symObjAddr: 0x2624, symBinAddr: 0x1000043F8, symSize: 0x64 }
  - { offsetInCU: 0xFEA6, offset: 0xFEA6, size: 0x8, addend: 0x0, symName: __ZNSt3__119__allocate_at_leastB7v160006INS_9allocatorImEEEENS_19__allocation_resultINS_16allocator_traitsIT_E7pointerEEERS5_m, symObjAddr: 0x2708, symBinAddr: 0x1000044DC, symSize: 0x40 }
  - { offsetInCU: 0xFEE9, offset: 0xFEE9, size: 0x8, addend: 0x0, symName: __ZNSt3__117__libcpp_allocateB7v160006Emm, symObjAddr: 0x2848, symBinAddr: 0x10000461C, symSize: 0x28 }
  - { offsetInCU: 0xFF26, offset: 0xFF26, size: 0x8, addend: 0x0, symName: __ZNSt3__121__libcpp_operator_newB7v160006IJmEEEPvDpT_, symObjAddr: 0x2870, symBinAddr: 0x100004644, symSize: 0x24 }
  - { offsetInCU: 0xFF5F, offset: 0xFF5F, size: 0x8, addend: 0x0, symName: __ZNSt3__18distanceB7v160006INS_14__bit_iteratorINS_6vectorIbNS_9allocatorIbEEEELb0ELm0EEEEENS_15iterator_traitsIT_E15difference_typeES8_S8_, symObjAddr: 0x2904, symBinAddr: 0x1000046D8, symSize: 0x5C }
  - { offsetInCU: 0xFFA4, offset: 0xFFA4, size: 0x8, addend: 0x0, symName: __ZNSt3__14copyB7v160006INS_6vectorIbNS_9allocatorIbEEEELb0EEENS_14__bit_iteratorIT_Lb0EXLi0EEEENS5_IS6_XT0_EXLi0EEEES8_S7_, symObjAddr: 0x2960, symBinAddr: 0x100004734, symSize: 0xE8 }
  - { offsetInCU: 0x10006, offset: 0x10006, size: 0x8, addend: 0x0, symName: __ZNSt3__110__distanceB7v160006INS_14__bit_iteratorINS_6vectorIbNS_9allocatorIbEEEELb0ELm0EEEEENS_15iterator_traitsIT_E15difference_typeES8_S8_NS_26random_access_iterator_tagE, symObjAddr: 0x2A48, symBinAddr: 0x10000481C, symSize: 0x38 }
  - { offsetInCU: 0x10055, offset: 0x10055, size: 0x8, addend: 0x0, symName: __ZNSt3__1miB7v160006ERKNS_14__bit_iteratorINS_6vectorIbNS_9allocatorIbEEEELb0ELm0EEES7_, symObjAddr: 0x2A80, symBinAddr: 0x100004854, symSize: 0x48 }
  - { offsetInCU: 0x10092, offset: 0x10092, size: 0x8, addend: 0x0, symName: __ZNSt3__13minB7v160006IlEERKT_S3_S3_, symObjAddr: 0x3280, symBinAddr: 0x100005054, symSize: 0x2C }
  - { offsetInCU: 0x100D5, offset: 0x100D5, size: 0x8, addend: 0x0, symName: __ZNSt3__112__to_addressB7v160006ImEEPT_S2_, symObjAddr: 0x32F0, symBinAddr: 0x1000050C4, symSize: 0x14 }
  - { offsetInCU: 0x1010A, offset: 0x1010A, size: 0x8, addend: 0x0, symName: __ZNSt3__13minB7v160006IlNS_6__lessIllEEEERKT_S5_S5_T0_, symObjAddr: 0x3304, symBinAddr: 0x1000050D8, symSize: 0x54 }
  - { offsetInCU: 0x1019F, offset: 0x1019F, size: 0x8, addend: 0x0, symName: __ZNSt3__14copyB7v160006IPmS1_EET0_T_S3_S2_, symObjAddr: 0x338C, symBinAddr: 0x100005160, symSize: 0x40 }
  - { offsetInCU: 0x101F9, offset: 0x101F9, size: 0x8, addend: 0x0, symName: __ZNSt3__16__copyB7v160006INS_17_ClassicAlgPolicyEPmS2_S2_EENS_4pairIT0_T2_EES4_T1_S5_, symObjAddr: 0x33CC, symBinAddr: 0x1000051A0, symSize: 0x44 }
  - { offsetInCU: 0x10265, offset: 0x10265, size: 0x8, addend: 0x0, symName: __ZNSt3__123__dispatch_copy_or_moveB7v160006INS_17_ClassicAlgPolicyENS_11__copy_loopIS1_EENS_14__copy_trivialEPmS5_S5_EENS_4pairIT2_T4_EES7_T3_S8_, symObjAddr: 0x3410, symBinAddr: 0x1000051E4, symSize: 0x44 }
  - { offsetInCU: 0x102E3, offset: 0x102E3, size: 0x8, addend: 0x0, symName: __ZNSt3__121__unwrap_and_dispatchB7v160006INS_10__overloadINS_11__copy_loopINS_17_ClassicAlgPolicyEEENS_14__copy_trivialEEEPmS7_S7_Li0EEENS_4pairIT0_T2_EES9_T1_SA_, symObjAddr: 0x3454, symBinAddr: 0x100005228, symSize: 0xB4 }
  - { offsetInCU: 0x10371, offset: 0x10371, size: 0x8, addend: 0x0, symName: __ZNSt3__114__unwrap_rangeB7v160006IPmS1_EENS_4pairIT0_S3_EET_S5_, symObjAddr: 0x3508, symBinAddr: 0x1000052DC, symSize: 0x60 }
  - { offsetInCU: 0x10542, offset: 0x10542, size: 0x8, addend: 0x0, symName: __ZNSt3__113__unwrap_iterB7v160006IPmNS_18__unwrap_iter_implIS1_Lb1EEELi0EEEDTclsrT0_8__unwrapclsr3stdE7declvalIT_EEEES5_, symObjAddr: 0x35B0, symBinAddr: 0x100005384, symSize: 0x24 }
  - { offsetInCU: 0x10586, offset: 0x10586, size: 0x8, addend: 0x0, symName: __ZNSt3__19make_pairB7v160006IPmS1_EENS_4pairINS_18__unwrap_ref_decayIT_E4typeENS3_IT0_E4typeEEEOS4_OS7_, symObjAddr: 0x35D4, symBinAddr: 0x1000053A8, symSize: 0x38 }
  - { offsetInCU: 0x105D5, offset: 0x105D5, size: 0x8, addend: 0x0, symName: __ZNSt3__114__rewrap_rangeB7v160006IPmS1_EET_S2_T0_, symObjAddr: 0x360C, symBinAddr: 0x1000053E0, symSize: 0x2C }
  - { offsetInCU: 0x10621, offset: 0x10621, size: 0x8, addend: 0x0, symName: __ZNSt3__113__rewrap_iterB7v160006IPmS1_NS_18__unwrap_iter_implIS1_Lb1EEEEET_S4_T0_, symObjAddr: 0x3638, symBinAddr: 0x10000540C, symSize: 0x3C }
  - { offsetInCU: 0x10676, offset: 0x10676, size: 0x8, addend: 0x0, symName: __ZNSt3__119__copy_trivial_implB7v160006ImmEENS_4pairIPT_PT0_EES3_S3_S5_, symObjAddr: 0x3674, symBinAddr: 0x100005448, symSize: 0x84 }
  - { offsetInCU: 0x106DE, offset: 0x106DE, size: 0x8, addend: 0x0, symName: __ZNSt3__19make_pairB7v160006IRPmS1_EENS_4pairINS_18__unwrap_ref_decayIT_E4typeENS4_IT0_E4typeEEEOS5_OS8_, symObjAddr: 0x36F8, symBinAddr: 0x1000054CC, symSize: 0x38 }
  - { offsetInCU: 0x10780, offset: 0x10780, size: 0x8, addend: 0x0, symName: __ZNSt3__13minB7v160006ImEERKT_S3_S3_, symObjAddr: 0x3884, symBinAddr: 0x100005658, symSize: 0x2C }
  - { offsetInCU: 0x107C3, offset: 0x107C3, size: 0x8, addend: 0x0, symName: __ZNSt3__13minB7v160006ImNS_6__lessImmEEEERKT_S5_S5_T0_, symObjAddr: 0x38B0, symBinAddr: 0x100005684, symSize: 0x54 }
  - { offsetInCU: 0x10858, offset: 0x10858, size: 0x8, addend: 0x0, symName: __ZNSt3__13maxB7v160006ImEERKT_S3_S3_, symObjAddr: 0x3938, symBinAddr: 0x10000570C, symSize: 0x2C }
  - { offsetInCU: 0x1089B, offset: 0x1089B, size: 0x8, addend: 0x0, symName: __ZNSt3__13maxB7v160006ImNS_6__lessImmEEEERKT_S5_S5_T0_, symObjAddr: 0x3980, symBinAddr: 0x100005754, symSize: 0x54 }
  - { offsetInCU: 0x108F5, offset: 0x108F5, size: 0x8, addend: 0x0, symName: __ZNSt3__1miB7v160006ERKNS_14__bit_iteratorINS_6vectorIbNS_9allocatorIbEEEELb1ELm0EEES7_, symObjAddr: 0x415C, symBinAddr: 0x100005F30, symSize: 0x48 }
  - { offsetInCU: 0x10932, offset: 0x10932, size: 0x8, addend: 0x0, symName: __ZNSt3__112__to_addressB7v160006IKmEEPT_S3_, symObjAddr: 0x41E8, symBinAddr: 0x100005FBC, symSize: 0x14 }
  - { offsetInCU: 0x10967, offset: 0x10967, size: 0x8, addend: 0x0, symName: __ZNSt3__14copyB7v160006IPKmPmEET0_T_S5_S4_, symObjAddr: 0x41FC, symBinAddr: 0x100005FD0, symSize: 0x40 }
  - { offsetInCU: 0x109C1, offset: 0x109C1, size: 0x8, addend: 0x0, symName: __ZNSt3__16__copyB7v160006INS_17_ClassicAlgPolicyEPKmS3_PmEENS_4pairIT0_T2_EES6_T1_S7_, symObjAddr: 0x423C, symBinAddr: 0x100006010, symSize: 0x44 }
  - { offsetInCU: 0x10A2D, offset: 0x10A2D, size: 0x8, addend: 0x0, symName: __ZNSt3__123__dispatch_copy_or_moveB7v160006INS_17_ClassicAlgPolicyENS_11__copy_loopIS1_EENS_14__copy_trivialEPKmS6_PmEENS_4pairIT2_T4_EES9_T3_SA_, symObjAddr: 0x4280, symBinAddr: 0x100006054, symSize: 0x44 }
  - { offsetInCU: 0x10AAB, offset: 0x10AAB, size: 0x8, addend: 0x0, symName: __ZNSt3__121__unwrap_and_dispatchB7v160006INS_10__overloadINS_11__copy_loopINS_17_ClassicAlgPolicyEEENS_14__copy_trivialEEEPKmS8_PmLi0EEENS_4pairIT0_T2_EESB_T1_SC_, symObjAddr: 0x42C4, symBinAddr: 0x100006098, symSize: 0xB4 }
  - { offsetInCU: 0x10B39, offset: 0x10B39, size: 0x8, addend: 0x0, symName: __ZNSt3__114__unwrap_rangeB7v160006IPKmS2_EENS_4pairIT0_S4_EET_S6_, symObjAddr: 0x4378, symBinAddr: 0x10000614C, symSize: 0x60 }
  - { offsetInCU: 0x10C88, offset: 0x10C88, size: 0x8, addend: 0x0, symName: __ZNSt3__19make_pairB7v160006IPKmPmEENS_4pairINS_18__unwrap_ref_decayIT_E4typeENS5_IT0_E4typeEEEOS6_OS9_, symObjAddr: 0x4420, symBinAddr: 0x1000061F4, symSize: 0x38 }
  - { offsetInCU: 0x10CD7, offset: 0x10CD7, size: 0x8, addend: 0x0, symName: __ZNSt3__114__rewrap_rangeB7v160006IPKmS2_EET_S3_T0_, symObjAddr: 0x4458, symBinAddr: 0x10000622C, symSize: 0x2C }
  - { offsetInCU: 0x10D23, offset: 0x10D23, size: 0x8, addend: 0x0, symName: __ZNSt3__19make_pairB7v160006IPKmS2_EENS_4pairINS_18__unwrap_ref_decayIT_E4typeENS4_IT0_E4typeEEEOS5_OS8_, symObjAddr: 0x4484, symBinAddr: 0x100006258, symSize: 0x38 }
  - { offsetInCU: 0x10D72, offset: 0x10D72, size: 0x8, addend: 0x0, symName: __ZNSt3__113__unwrap_iterB7v160006IPKmNS_18__unwrap_iter_implIS2_Lb1EEELi0EEEDTclsrT0_8__unwrapclsr3stdE7declvalIT_EEEES6_, symObjAddr: 0x44BC, symBinAddr: 0x100006290, symSize: 0x24 }
  - { offsetInCU: 0x10EDD, offset: 0x10EDD, size: 0x8, addend: 0x0, symName: __ZNSt3__119__copy_trivial_implB7v160006IKmmEENS_4pairIPT_PT0_EES4_S4_S6_, symObjAddr: 0x4574, symBinAddr: 0x100006348, symSize: 0x84 }
  - { offsetInCU: 0x10F45, offset: 0x10F45, size: 0x8, addend: 0x0, symName: __ZNSt3__19make_pairB7v160006IRPKmPmEENS_4pairINS_18__unwrap_ref_decayIT_E4typeENS6_IT0_E4typeEEEOS7_OSA_, symObjAddr: 0x45F8, symBinAddr: 0x1000063CC, symSize: 0x38 }
  - { offsetInCU: 0x10F94, offset: 0x10F94, size: 0x8, addend: 0x0, symName: __ZNSt3__113__rewrap_iterB7v160006IPKmS2_NS_18__unwrap_iter_implIS2_Lb1EEEEET_S5_T0_, symObjAddr: 0x4710, symBinAddr: 0x1000064E4, symSize: 0x3C }
  - { offsetInCU: 0x10FE9, offset: 0x10FE9, size: 0x8, addend: 0x0, symName: __ZNSt3__14swapB7v160006IPmEENS_9enable_ifIXaasr21is_move_constructibleIT_EE5valuesr18is_move_assignableIS3_EE5valueEvE4typeERS3_S6_, symObjAddr: 0x4860, symBinAddr: 0x100006634, symSize: 0x3C }
  - { offsetInCU: 0x1103A, offset: 0x1103A, size: 0x8, addend: 0x0, symName: __ZNSt3__14swapB7v160006ImEENS_9enable_ifIXaasr21is_move_constructibleIT_EE5valuesr18is_move_assignableIS2_EE5valueEvE4typeERS2_S5_, symObjAddr: 0x489C, symBinAddr: 0x100006670, symSize: 0x3C }
  - { offsetInCU: 0x1108B, offset: 0x1108B, size: 0x8, addend: 0x0, symName: __ZNSt3__116__swap_allocatorB7v160006INS_9allocatorImEEEEvRT_S4_NS_17integral_constantIbLb0EEE, symObjAddr: 0x48D8, symBinAddr: 0x1000066AC, symSize: 0x14 }
  - { offsetInCU: 0x110CC, offset: 0x110CC, size: 0x8, addend: 0x0, symName: __ZNSt3__16fill_nB7v160006IPmmmEET_S2_T0_RKT1_, symObjAddr: 0x4BA8, symBinAddr: 0x10000697C, symSize: 0x44 }
  - { offsetInCU: 0x1112F, offset: 0x1112F, size: 0x8, addend: 0x0, symName: __ZNSt3__18__fill_nB7v160006IPmmmEET_S2_T0_RKT1_, symObjAddr: 0x4BEC, symBinAddr: 0x1000069C0, symSize: 0x64 }
  - { offsetInCU: 0x11192, offset: 0x11192, size: 0x8, addend: 0x0, symName: __ZNSt3__121__convert_to_integralB7v160006Em, symObjAddr: 0x4C50, symBinAddr: 0x100006A24, symSize: 0x14 }
  - { offsetInCU: 0x111BE, offset: 0x111BE, size: 0x8, addend: 0x0, symName: __ZNSt3__16fill_nB7v160006IPmmiEET_S2_T0_RKT1_, symObjAddr: 0x4C64, symBinAddr: 0x100006A38, symSize: 0x44 }
  - { offsetInCU: 0x11221, offset: 0x11221, size: 0x8, addend: 0x0, symName: __ZNSt3__18__fill_nB7v160006IPmmiEET_S2_T0_RKT1_, symObjAddr: 0x4CA8, symBinAddr: 0x100006A7C, symSize: 0x64 }
  - { offsetInCU: 0x11284, offset: 0x11284, size: 0x8, addend: 0x0, symName: __ZNSt3__125__debug_db_invalidate_allB7v160006INS_6vectorIbNS_9allocatorIbEEE16__destroy_vectorEEEvPT_, symObjAddr: 0x4E8C, symBinAddr: 0x100006C60, symSize: 0x10 }
  - { offsetInCU: 0x112B5, offset: 0x112B5, size: 0x8, addend: 0x0, symName: __ZNSt3__119__libcpp_deallocateB7v160006EPvmm, symObjAddr: 0x4EDC, symBinAddr: 0x100006CB0, symSize: 0x30 }
  - { offsetInCU: 0x112FD, offset: 0x112FD, size: 0x8, addend: 0x0, symName: __ZNSt3__127__do_deallocate_handle_sizeB7v160006IJEEEvPvmDpT_, symObjAddr: 0x4F0C, symBinAddr: 0x100006CE0, symSize: 0x28 }
  - { offsetInCU: 0x1133B, offset: 0x1133B, size: 0x8, addend: 0x0, symName: __ZNSt3__124__libcpp_operator_deleteB7v160006IJPvEEEvDpT_, symObjAddr: 0x4F34, symBinAddr: 0x100006D08, symSize: 0x24 }
  - { offsetInCU: 0x11370, offset: 0x11370, size: 0x8, addend: 0x0, symName: __ZNSt3__1neB7v160006ERKNS_16__deque_iteratorI6stringPS1_RS1_PS2_lLl170EEES7_, symObjAddr: 0x5514, symBinAddr: 0x1000072E8, symSize: 0x34 }
  - { offsetInCU: 0x113AD, offset: 0x113AD, size: 0x8, addend: 0x0, symName: __ZNSt3__1eqB7v160006ERKNS_16__deque_iteratorI6stringPS1_RS1_PS2_lLl170EEES7_, symObjAddr: 0x5794, symBinAddr: 0x100007568, symSize: 0x30 }
  - { offsetInCU: 0x113EA, offset: 0x113EA, size: 0x8, addend: 0x0, symName: __ZNSt3__112__to_addressB7v160006IP6stringEEPT_S4_, symObjAddr: 0x5B00, symBinAddr: 0x1000078D4, symSize: 0x14 }
  - { offsetInCU: 0x1141F, offset: 0x1141F, size: 0x8, addend: 0x0, symName: __ZNSt3__119__debug_db_insert_cB7v160006INS_6vectorIP17_opaque_pthread_tNS_9allocatorIS3_EEEEEEvPT_, symObjAddr: 0x6374, symBinAddr: 0x100008148, symSize: 0x10 }
  - { offsetInCU: 0x11450, offset: 0x11450, size: 0x8, addend: 0x0, symName: __ZNSt3__112__to_addressB7v160006I4TaskEEPT_S3_, symObjAddr: 0x69D8, symBinAddr: 0x1000087AC, symSize: 0x14 }
  - { offsetInCU: 0x11485, offset: 0x11485, size: 0x8, addend: 0x0, symName: __ZNSt3__112__to_addressB7v160006IP17_opaque_pthread_tEEPT_S4_, symObjAddr: 0x6F08, symBinAddr: 0x100008CDC, symSize: 0x14 }
  - { offsetInCU: 0x116BB, offset: 0x116BB, size: 0x8, addend: 0x0, symName: __ZNSt3__119__allocate_at_leastB7v160006INS_9allocatorIP17_opaque_pthread_tEEEENS_19__allocation_resultINS_16allocator_traitsIT_E7pointerEEERS7_m, symObjAddr: 0x7550, symBinAddr: 0x100009324, symSize: 0x40 }
  - { offsetInCU: 0x116FE, offset: 0x116FE, size: 0x8, addend: 0x0, symName: __ZNSt3__142__uninitialized_allocator_move_if_noexceptB7v160006INS_9allocatorIP17_opaque_pthread_tEENS_16reverse_iteratorIPS3_EES7_S3_vEET1_RT_T0_SB_S8_, symObjAddr: 0x77BC, symBinAddr: 0x100009590, symSize: 0x78 }
  - { offsetInCU: 0x1177B, offset: 0x1177B, size: 0x8, addend: 0x0, symName: __ZNSt3__14swapB7v160006IPP17_opaque_pthread_tEENS_9enable_ifIXaasr21is_move_constructibleIT_EE5valuesr18is_move_assignableIS5_EE5valueEvE4typeERS5_S8_, symObjAddr: 0x7880, symBinAddr: 0x100009654, symSize: 0x3C }
  - { offsetInCU: 0x117CC, offset: 0x117CC, size: 0x8, addend: 0x0, symName: __ZNSt3__125__debug_db_invalidate_allB7v160006INS_6vectorIP17_opaque_pthread_tNS_9allocatorIS3_EEEEEEvPT_, symObjAddr: 0x7968, symBinAddr: 0x10000973C, symSize: 0x10 }
  - { offsetInCU: 0x117FD, offset: 0x117FD, size: 0x8, addend: 0x0, symName: __ZNSt3__14moveB7v160006INS_16reverse_iteratorIPP17_opaque_pthread_tEES5_EET0_T_S7_S6_, symObjAddr: 0x79C0, symBinAddr: 0x100009794, symSize: 0x78 }
  - { offsetInCU: 0x11857, offset: 0x11857, size: 0x8, addend: 0x0, symName: __ZNSt3__16__moveB7v160006INS_17_ClassicAlgPolicyENS_16reverse_iteratorIPP17_opaque_pthread_tEES6_S6_EENS_4pairIT0_T2_EES8_T1_S9_, symObjAddr: 0x7A38, symBinAddr: 0x10000980C, symSize: 0x64 }
  - { offsetInCU: 0x118C3, offset: 0x118C3, size: 0x8, addend: 0x0, symName: __ZNSt3__123__dispatch_copy_or_moveB7v160006INS_17_ClassicAlgPolicyENS_11__move_loopIS1_EENS_14__move_trivialENS_16reverse_iteratorIPP17_opaque_pthread_tEES9_S9_EENS_4pairIT2_T4_EESB_T3_SC_, symObjAddr: 0x7A9C, symBinAddr: 0x100009870, symSize: 0x64 }
  - { offsetInCU: 0x11941, offset: 0x11941, size: 0x8, addend: 0x0, symName: __ZNSt3__121__unwrap_and_dispatchB7v160006INS_10__overloadINS_11__move_loopINS_17_ClassicAlgPolicyEEENS_14__move_trivialEEENS_16reverse_iteratorIPP17_opaque_pthread_tEESB_SB_Li0EEENS_4pairIT0_T2_EESD_T1_SE_, symObjAddr: 0x7B00, symBinAddr: 0x1000098D4, symSize: 0x12C }
  - { offsetInCU: 0x119D1, offset: 0x119D1, size: 0x8, addend: 0x0, symName: __ZNSt3__114__unwrap_rangeB7v160006INS_16reverse_iteratorIPP17_opaque_pthread_tEES5_EENS_4pairIT0_S7_EET_S9_, symObjAddr: 0x7C2C, symBinAddr: 0x100009A00, symSize: 0x84 }
  - { offsetInCU: 0x11B4C, offset: 0x11B4C, size: 0x8, addend: 0x0, symName: __ZNSt3__113__unwrap_iterB7v160006INS_16reverse_iteratorIPP17_opaque_pthread_tEENS_18__unwrap_iter_implIS5_Lb0EEELi0EEEDTclsrT0_8__unwrapclsr3stdE7declvalIT_EEEES9_, symObjAddr: 0x7D50, symBinAddr: 0x100009B24, symSize: 0x44 }
  - { offsetInCU: 0x11B90, offset: 0x11B90, size: 0x8, addend: 0x0, symName: __ZNSt3__19make_pairB7v160006INS_16reverse_iteratorIPP17_opaque_pthread_tEES5_EENS_4pairINS_18__unwrap_ref_decayIT_E4typeENS7_IT0_E4typeEEEOS8_OSB_, symObjAddr: 0x7D94, symBinAddr: 0x100009B68, symSize: 0x38 }
  - { offsetInCU: 0x11BDF, offset: 0x11BDF, size: 0x8, addend: 0x0, symName: __ZNSt3__114__rewrap_rangeB7v160006INS_16reverse_iteratorIPP17_opaque_pthread_tEES5_EET_S6_T0_, symObjAddr: 0x7DCC, symBinAddr: 0x100009BA0, symSize: 0x5C }
  - { offsetInCU: 0x11C2B, offset: 0x11C2B, size: 0x8, addend: 0x0, symName: __ZNSt3__113__rewrap_iterB7v160006INS_16reverse_iteratorIPP17_opaque_pthread_tEES5_NS_18__unwrap_iter_implIS5_Lb0EEEEET_S8_T0_, symObjAddr: 0x7E28, symBinAddr: 0x100009BFC, symSize: 0x74 }
  - { offsetInCU: 0x11C80, offset: 0x11C80, size: 0x8, addend: 0x0, symName: __ZNSt3__1neB7v160006IPP17_opaque_pthread_tS3_EEbRKNS_16reverse_iteratorIT_EERKNS4_IT0_EE, symObjAddr: 0x7E9C, symBinAddr: 0x100009C70, symSize: 0x48 }
  - { offsetInCU: 0x11D7E, offset: 0x11D7E, size: 0x8, addend: 0x0, symName: __ZNSt3__1neB7v160006ERKNS_16__deque_iteratorI4TaskPS1_RS1_PS2_lLl256EEES7_, symObjAddr: 0x8704, symBinAddr: 0x10000A4D8, symSize: 0x34 }
  - { offsetInCU: 0x11DBB, offset: 0x11DBB, size: 0x8, addend: 0x0, symName: __ZNSt3__1eqB7v160006ERKNS_16__deque_iteratorI4TaskPS1_RS1_PS2_lLl256EEES7_, symObjAddr: 0x8878, symBinAddr: 0x10000A64C, symSize: 0x30 }
  - { offsetInCU: 0x11DF8, offset: 0x11DF8, size: 0x8, addend: 0x0, symName: __ZNSt3__112__to_addressB7v160006IP4TaskEEPT_S4_, symObjAddr: 0x8AD0, symBinAddr: 0x10000A8A4, symSize: 0x14 }
  - { offsetInCU: 0x11E2D, offset: 0x11E2D, size: 0x8, addend: 0x0, symName: __ZNSt3__118__debug_db_erase_cB7v160006INS_6vectorIP17_opaque_pthread_tNS_9allocatorIS3_EEEEEEvPT_, symObjAddr: 0x8D04, symBinAddr: 0x10000AAD8, symSize: 0x10 }
  - { offsetInCU: 0x11E5E, offset: 0x11E5E, size: 0x8, addend: 0x0, symName: __ZNSt3__1neB7v160006IPP17_opaque_pthread_tEEbRKNS_11__wrap_iterIT_EES8_, symObjAddr: 0x8F2C, symBinAddr: 0x10000AD00, symSize: 0x34 }
  - { offsetInCU: 0x11EA1, offset: 0x11EA1, size: 0x8, addend: 0x0, symName: __ZNSt3__1eqB7v160006IPP17_opaque_pthread_tEEbRKNS_11__wrap_iterIT_EES8_, symObjAddr: 0x902C, symBinAddr: 0x10000AE00, symSize: 0x48 }
  - { offsetInCU: 0x11EE4, offset: 0x11EE4, size: 0x8, addend: 0x0, symName: __ZNSt3__14swapB7v160006I6stringEENS_9enable_ifIXaasr21is_move_constructibleIT_EE5valuesr18is_move_assignableIS3_EE5valueEvE4typeERS3_S6_, symObjAddr: 0x9638, symBinAddr: 0x10000B40C, symSize: 0x74 }
  - { offsetInCU: 0x1238E, offset: 0x1238E, size: 0x8, addend: 0x0, symName: __ZNSt3__14swapB7v160006IPP6stringEENS_9enable_ifIXaasr21is_move_constructibleIT_EE5valuesr18is_move_assignableIS5_EE5valueEvE4typeERS5_S8_, symObjAddr: 0xA970, symBinAddr: 0x10000C744, symSize: 0x3C }
  - { offsetInCU: 0x123DF, offset: 0x123DF, size: 0x8, addend: 0x0, symName: __ZNSt3__14moveB7v160006IPP6stringS3_EET0_T_S5_S4_, symObjAddr: 0xAA54, symBinAddr: 0x10000C828, symSize: 0x40 }
  - { offsetInCU: 0x12439, offset: 0x12439, size: 0x8, addend: 0x0, symName: __ZNSt3__16__moveB7v160006INS_17_ClassicAlgPolicyEPP6stringS4_S4_EENS_4pairIT0_T2_EES6_T1_S7_, symObjAddr: 0xABF8, symBinAddr: 0x10000C9CC, symSize: 0x44 }
  - { offsetInCU: 0x124A5, offset: 0x124A5, size: 0x8, addend: 0x0, symName: __ZNSt3__123__dispatch_copy_or_moveB7v160006INS_17_ClassicAlgPolicyENS_11__move_loopIS1_EENS_14__move_trivialEPP6stringS7_S7_EENS_4pairIT2_T4_EES9_T3_SA_, symObjAddr: 0xAC3C, symBinAddr: 0x10000CA10, symSize: 0x44 }
  - { offsetInCU: 0x12523, offset: 0x12523, size: 0x8, addend: 0x0, symName: __ZNSt3__121__unwrap_and_dispatchB7v160006INS_10__overloadINS_11__move_loopINS_17_ClassicAlgPolicyEEENS_14__move_trivialEEEPP6stringS9_S9_Li0EEENS_4pairIT0_T2_EESB_T1_SC_, symObjAddr: 0xAC80, symBinAddr: 0x10000CA54, symSize: 0xB4 }
  - { offsetInCU: 0x125B1, offset: 0x125B1, size: 0x8, addend: 0x0, symName: __ZNSt3__114__unwrap_rangeB7v160006IPP6stringS3_EENS_4pairIT0_S5_EET_S7_, symObjAddr: 0xAD34, symBinAddr: 0x10000CB08, symSize: 0x60 }
  - { offsetInCU: 0x127ED, offset: 0x127ED, size: 0x8, addend: 0x0, symName: __ZNSt3__113__unwrap_iterB7v160006IPP6stringNS_18__unwrap_iter_implIS3_Lb1EEELi0EEEDTclsrT0_8__unwrapclsr3stdE7declvalIT_EEEES7_, symObjAddr: 0xADDC, symBinAddr: 0x10000CBB0, symSize: 0x24 }
  - { offsetInCU: 0x12831, offset: 0x12831, size: 0x8, addend: 0x0, symName: __ZNSt3__19make_pairB7v160006IPP6stringS3_EENS_4pairINS_18__unwrap_ref_decayIT_E4typeENS5_IT0_E4typeEEEOS6_OS9_, symObjAddr: 0xAE00, symBinAddr: 0x10000CBD4, symSize: 0x38 }
  - { offsetInCU: 0x12880, offset: 0x12880, size: 0x8, addend: 0x0, symName: __ZNSt3__114__rewrap_rangeB7v160006IPP6stringS3_EET_S4_T0_, symObjAddr: 0xAE38, symBinAddr: 0x10000CC0C, symSize: 0x2C }
  - { offsetInCU: 0x128CC, offset: 0x128CC, size: 0x8, addend: 0x0, symName: __ZNSt3__113__rewrap_iterB7v160006IPP6stringS3_NS_18__unwrap_iter_implIS3_Lb1EEEEET_S6_T0_, symObjAddr: 0xAE64, symBinAddr: 0x10000CC38, symSize: 0x3C }
  - { offsetInCU: 0x12921, offset: 0x12921, size: 0x8, addend: 0x0, symName: __ZNSt3__119__copy_trivial_implB7v160006IP6stringS2_EENS_4pairIPT_PT0_EES5_S5_S7_, symObjAddr: 0xAEA0, symBinAddr: 0x10000CC74, symSize: 0x84 }
  - { offsetInCU: 0x12989, offset: 0x12989, size: 0x8, addend: 0x0, symName: __ZNSt3__19make_pairB7v160006IRPP6stringS3_EENS_4pairINS_18__unwrap_ref_decayIT_E4typeENS6_IT0_E4typeEEEOS7_OSA_, symObjAddr: 0xAF24, symBinAddr: 0x10000CCF8, symSize: 0x38 }
  - { offsetInCU: 0x12A2B, offset: 0x12A2B, size: 0x8, addend: 0x0, symName: __ZNSt3__18distanceB7v160006INS_13move_iteratorIPP6stringEEEENS_15iterator_traitsIT_E15difference_typeES7_S7_, symObjAddr: 0xB0B0, symBinAddr: 0x10000CE84, symSize: 0x3C }
  - { offsetInCU: 0x12A6E, offset: 0x12A6E, size: 0x8, addend: 0x0, symName: __ZNSt3__110__distanceB7v160006INS_13move_iteratorIPP6stringEEEENS_15iterator_traitsIT_E15difference_typeES7_S7_NS_26random_access_iterator_tagE, symObjAddr: 0xB1E8, symBinAddr: 0x10000CFBC, symSize: 0x30 }
  - { offsetInCU: 0x12ABB, offset: 0x12ABB, size: 0x8, addend: 0x0, symName: __ZNSt3__1miB7v160006IPP6stringS3_EEDTmicldtfp_4baseEcldtfp0_4baseEERKNS_13move_iteratorIT_EERKNS5_IT0_EE, symObjAddr: 0xB218, symBinAddr: 0x10000CFEC, symSize: 0x48 }
  - { offsetInCU: 0x12B0A, offset: 0x12B0A, size: 0x8, addend: 0x0, symName: __ZNSt3__113move_backwardB7v160006IPP6stringS3_EET0_T_S5_S4_, symObjAddr: 0xB424, symBinAddr: 0x10000D1F8, symSize: 0x40 }
  - { offsetInCU: 0x12B64, offset: 0x12B64, size: 0x8, addend: 0x0, symName: __ZNSt3__115__move_backwardB7v160006INS_17_ClassicAlgPolicyEPP6stringS4_S4_EENS_4pairIT0_T2_EES6_T1_S7_, symObjAddr: 0xB464, symBinAddr: 0x10000D238, symSize: 0x44 }
  - { offsetInCU: 0x12BD0, offset: 0x12BD0, size: 0x8, addend: 0x0, symName: __ZNSt3__123__dispatch_copy_or_moveB7v160006INS_17_ClassicAlgPolicyENS_20__move_backward_loopIS1_EENS_23__move_backward_trivialEPP6stringS7_S7_EENS_4pairIT2_T4_EES9_T3_SA_, symObjAddr: 0xB4A8, symBinAddr: 0x10000D27C, symSize: 0x44 }
  - { offsetInCU: 0x12C4E, offset: 0x12C4E, size: 0x8, addend: 0x0, symName: __ZNSt3__121__unwrap_and_dispatchB7v160006INS_10__overloadINS_20__move_backward_loopINS_17_ClassicAlgPolicyEEENS_23__move_backward_trivialEEEPP6stringS9_S9_Li0EEENS_4pairIT0_T2_EESB_T1_SC_, symObjAddr: 0xB4EC, symBinAddr: 0x10000D2C0, symSize: 0xB4 }
  - { offsetInCU: 0x12D9A, offset: 0x12D9A, size: 0x8, addend: 0x0, symName: __ZNSt3__128__copy_backward_trivial_implB7v160006IP6stringS2_EENS_4pairIPT_PT0_EES5_S5_S7_, symObjAddr: 0xB5E8, symBinAddr: 0x10000D3BC, symSize: 0x94 }
  - { offsetInCU: 0x12E02, offset: 0x12E02, size: 0x8, addend: 0x0, symName: __ZNSt3__19make_pairB7v160006IRPP6stringS4_EENS_4pairINS_18__unwrap_ref_decayIT_E4typeENS6_IT0_E4typeEEEOS7_OSA_, symObjAddr: 0xB67C, symBinAddr: 0x10000D450, symSize: 0x38 }
  - { offsetInCU: 0x12E51, offset: 0x12E51, size: 0x8, addend: 0x0, symName: __ZNSt3__119__allocate_at_leastB7v160006INS_9allocatorIP6stringEEEENS_19__allocation_resultINS_16allocator_traitsIT_E7pointerEEERS7_m, symObjAddr: 0xB834, symBinAddr: 0x10000D608, symSize: 0x40 }
  - { offsetInCU: 0x12E94, offset: 0x12E94, size: 0x8, addend: 0x0, symName: __ZNSt3__112__to_addressB7v160006I6stringEEPT_S3_, symObjAddr: 0xC19C, symBinAddr: 0x10000DF70, symSize: 0x14 }
  - { offsetInCU: 0x13322, offset: 0x13322, size: 0x8, addend: 0x0, symName: __ZNSt3__14swapB7v160006IPP4TaskEENS_9enable_ifIXaasr21is_move_constructibleIT_EE5valuesr18is_move_assignableIS5_EE5valueEvE4typeERS5_S8_, symObjAddr: 0xE744, symBinAddr: 0x100010518, symSize: 0x3C }
  - { offsetInCU: 0x13373, offset: 0x13373, size: 0x8, addend: 0x0, symName: __ZNSt3__14moveB7v160006IPP4TaskS3_EET0_T_S5_S4_, symObjAddr: 0xE828, symBinAddr: 0x1000105FC, symSize: 0x40 }
  - { offsetInCU: 0x133CD, offset: 0x133CD, size: 0x8, addend: 0x0, symName: __ZNSt3__16__moveB7v160006INS_17_ClassicAlgPolicyEPP4TaskS4_S4_EENS_4pairIT0_T2_EES6_T1_S7_, symObjAddr: 0xE9CC, symBinAddr: 0x1000107A0, symSize: 0x44 }
  - { offsetInCU: 0x13439, offset: 0x13439, size: 0x8, addend: 0x0, symName: __ZNSt3__123__dispatch_copy_or_moveB7v160006INS_17_ClassicAlgPolicyENS_11__move_loopIS1_EENS_14__move_trivialEPP4TaskS7_S7_EENS_4pairIT2_T4_EES9_T3_SA_, symObjAddr: 0xEA10, symBinAddr: 0x1000107E4, symSize: 0x44 }
  - { offsetInCU: 0x134B7, offset: 0x134B7, size: 0x8, addend: 0x0, symName: __ZNSt3__121__unwrap_and_dispatchB7v160006INS_10__overloadINS_11__move_loopINS_17_ClassicAlgPolicyEEENS_14__move_trivialEEEPP4TaskS9_S9_Li0EEENS_4pairIT0_T2_EESB_T1_SC_, symObjAddr: 0xEA54, symBinAddr: 0x100010828, symSize: 0xB4 }
  - { offsetInCU: 0x13545, offset: 0x13545, size: 0x8, addend: 0x0, symName: __ZNSt3__114__unwrap_rangeB7v160006IPP4TaskS3_EENS_4pairIT0_S5_EET_S7_, symObjAddr: 0xEB08, symBinAddr: 0x1000108DC, symSize: 0x60 }
  - { offsetInCU: 0x136C3, offset: 0x136C3, size: 0x8, addend: 0x0, symName: __ZNSt3__113__unwrap_iterB7v160006IPP4TaskNS_18__unwrap_iter_implIS3_Lb1EEELi0EEEDTclsrT0_8__unwrapclsr3stdE7declvalIT_EEEES7_, symObjAddr: 0xEBB0, symBinAddr: 0x100010984, symSize: 0x24 }
  - { offsetInCU: 0x13707, offset: 0x13707, size: 0x8, addend: 0x0, symName: __ZNSt3__19make_pairB7v160006IPP4TaskS3_EENS_4pairINS_18__unwrap_ref_decayIT_E4typeENS5_IT0_E4typeEEEOS6_OS9_, symObjAddr: 0xEBD4, symBinAddr: 0x1000109A8, symSize: 0x38 }
  - { offsetInCU: 0x13756, offset: 0x13756, size: 0x8, addend: 0x0, symName: __ZNSt3__114__rewrap_rangeB7v160006IPP4TaskS3_EET_S4_T0_, symObjAddr: 0xEC0C, symBinAddr: 0x1000109E0, symSize: 0x2C }
  - { offsetInCU: 0x137A2, offset: 0x137A2, size: 0x8, addend: 0x0, symName: __ZNSt3__113__rewrap_iterB7v160006IPP4TaskS3_NS_18__unwrap_iter_implIS3_Lb1EEEEET_S6_T0_, symObjAddr: 0xEC38, symBinAddr: 0x100010A0C, symSize: 0x3C }
  - { offsetInCU: 0x137F7, offset: 0x137F7, size: 0x8, addend: 0x0, symName: __ZNSt3__119__copy_trivial_implB7v160006IP4TaskS2_EENS_4pairIPT_PT0_EES5_S5_S7_, symObjAddr: 0xEC74, symBinAddr: 0x100010A48, symSize: 0x84 }
  - { offsetInCU: 0x1385F, offset: 0x1385F, size: 0x8, addend: 0x0, symName: __ZNSt3__19make_pairB7v160006IRPP4TaskS3_EENS_4pairINS_18__unwrap_ref_decayIT_E4typeENS6_IT0_E4typeEEEOS7_OSA_, symObjAddr: 0xECF8, symBinAddr: 0x100010ACC, symSize: 0x38 }
  - { offsetInCU: 0x13901, offset: 0x13901, size: 0x8, addend: 0x0, symName: __ZNSt3__18distanceB7v160006INS_13move_iteratorIPP4TaskEEEENS_15iterator_traitsIT_E15difference_typeES7_S7_, symObjAddr: 0xEE84, symBinAddr: 0x100010C58, symSize: 0x3C }
  - { offsetInCU: 0x13944, offset: 0x13944, size: 0x8, addend: 0x0, symName: __ZNSt3__110__distanceB7v160006INS_13move_iteratorIPP4TaskEEEENS_15iterator_traitsIT_E15difference_typeES7_S7_NS_26random_access_iterator_tagE, symObjAddr: 0xEFBC, symBinAddr: 0x100010D90, symSize: 0x30 }
  - { offsetInCU: 0x13991, offset: 0x13991, size: 0x8, addend: 0x0, symName: __ZNSt3__1miB7v160006IPP4TaskS3_EEDTmicldtfp_4baseEcldtfp0_4baseEERKNS_13move_iteratorIT_EERKNS5_IT0_EE, symObjAddr: 0xEFEC, symBinAddr: 0x100010DC0, symSize: 0x48 }
  - { offsetInCU: 0x139E0, offset: 0x139E0, size: 0x8, addend: 0x0, symName: __ZNSt3__113move_backwardB7v160006IPP4TaskS3_EET0_T_S5_S4_, symObjAddr: 0xF1F0, symBinAddr: 0x100010FC4, symSize: 0x40 }
  - { offsetInCU: 0x13A3A, offset: 0x13A3A, size: 0x8, addend: 0x0, symName: __ZNSt3__115__move_backwardB7v160006INS_17_ClassicAlgPolicyEPP4TaskS4_S4_EENS_4pairIT0_T2_EES6_T1_S7_, symObjAddr: 0xF230, symBinAddr: 0x100011004, symSize: 0x44 }
  - { offsetInCU: 0x13AA6, offset: 0x13AA6, size: 0x8, addend: 0x0, symName: __ZNSt3__123__dispatch_copy_or_moveB7v160006INS_17_ClassicAlgPolicyENS_20__move_backward_loopIS1_EENS_23__move_backward_trivialEPP4TaskS7_S7_EENS_4pairIT2_T4_EES9_T3_SA_, symObjAddr: 0xF274, symBinAddr: 0x100011048, symSize: 0x44 }
  - { offsetInCU: 0x13B24, offset: 0x13B24, size: 0x8, addend: 0x0, symName: __ZNSt3__121__unwrap_and_dispatchB7v160006INS_10__overloadINS_20__move_backward_loopINS_17_ClassicAlgPolicyEEENS_23__move_backward_trivialEEEPP4TaskS9_S9_Li0EEENS_4pairIT0_T2_EESB_T1_SC_, symObjAddr: 0xF2B8, symBinAddr: 0x10001108C, symSize: 0xB4 }
  - { offsetInCU: 0x13BB2, offset: 0x13BB2, size: 0x8, addend: 0x0, symName: __ZNSt3__128__copy_backward_trivial_implB7v160006IP4TaskS2_EENS_4pairIPT_PT0_EES5_S5_S7_, symObjAddr: 0xF3B4, symBinAddr: 0x100011188, symSize: 0x94 }
  - { offsetInCU: 0x13C1A, offset: 0x13C1A, size: 0x8, addend: 0x0, symName: __ZNSt3__19make_pairB7v160006IRPP4TaskS4_EENS_4pairINS_18__unwrap_ref_decayIT_E4typeENS6_IT0_E4typeEEEOS7_OSA_, symObjAddr: 0xF448, symBinAddr: 0x10001121C, symSize: 0x38 }
  - { offsetInCU: 0x13C69, offset: 0x13C69, size: 0x8, addend: 0x0, symName: __ZNSt3__119__allocate_at_leastB7v160006INS_9allocatorIP4TaskEEEENS_19__allocation_resultINS_16allocator_traitsIT_E7pointerEEERS7_m, symObjAddr: 0xF600, symBinAddr: 0x1000113D4, symSize: 0x40 }
  - { offsetInCU: 0x13CAC, offset: 0x13CAC, size: 0x8, addend: 0x0, symName: __ZNSt3__19use_facetB7v160006INS_5ctypeIcEEEERKT_RKNS_6localeE, symObjAddr: 0x109AC, symBinAddr: 0x100012780, symSize: 0x2C }
  - { offsetInCU: 0x1417B, offset: 0x1417B, size: 0x8, addend: 0x0, symName: __ZNSt3__1neB7v160006ERKNS_16__deque_iteratorI14crawlerResultsPS1_RS1_PS2_lLl23EEES7_, symObjAddr: 0x112F0, symBinAddr: 0x1000130C4, symSize: 0x34 }
  - { offsetInCU: 0x141B8, offset: 0x141B8, size: 0x8, addend: 0x0, symName: __ZNSt3__1eqB7v160006ERKNS_16__deque_iteratorI14crawlerResultsPS1_RS1_PS2_lLl23EEES7_, symObjAddr: 0x11570, symBinAddr: 0x100013344, symSize: 0x30 }
  - { offsetInCU: 0x141F5, offset: 0x141F5, size: 0x8, addend: 0x0, symName: __ZNSt3__112__to_addressB7v160006IP14crawlerResultsEEPT_S4_, symObjAddr: 0x118DC, symBinAddr: 0x1000136B0, symSize: 0x14 }
  - { offsetInCU: 0x14683, offset: 0x14683, size: 0x8, addend: 0x0, symName: __ZNSt3__14swapB7v160006IPP14crawlerResultsEENS_9enable_ifIXaasr21is_move_constructibleIT_EE5valuesr18is_move_assignableIS5_EE5valueEvE4typeERS5_S8_, symObjAddr: 0x12D9C, symBinAddr: 0x100014B70, symSize: 0x3C }
  - { offsetInCU: 0x146D4, offset: 0x146D4, size: 0x8, addend: 0x0, symName: __ZNSt3__14moveB7v160006IPP14crawlerResultsS3_EET0_T_S5_S4_, symObjAddr: 0x12E80, symBinAddr: 0x100014C54, symSize: 0x40 }
  - { offsetInCU: 0x1472E, offset: 0x1472E, size: 0x8, addend: 0x0, symName: __ZNSt3__16__moveB7v160006INS_17_ClassicAlgPolicyEPP14crawlerResultsS4_S4_EENS_4pairIT0_T2_EES6_T1_S7_, symObjAddr: 0x13024, symBinAddr: 0x100014DF8, symSize: 0x44 }
  - { offsetInCU: 0x1479A, offset: 0x1479A, size: 0x8, addend: 0x0, symName: __ZNSt3__123__dispatch_copy_or_moveB7v160006INS_17_ClassicAlgPolicyENS_11__move_loopIS1_EENS_14__move_trivialEPP14crawlerResultsS7_S7_EENS_4pairIT2_T4_EES9_T3_SA_, symObjAddr: 0x13068, symBinAddr: 0x100014E3C, symSize: 0x44 }
  - { offsetInCU: 0x14818, offset: 0x14818, size: 0x8, addend: 0x0, symName: __ZNSt3__121__unwrap_and_dispatchB7v160006INS_10__overloadINS_11__move_loopINS_17_ClassicAlgPolicyEEENS_14__move_trivialEEEPP14crawlerResultsS9_S9_Li0EEENS_4pairIT0_T2_EESB_T1_SC_, symObjAddr: 0x130AC, symBinAddr: 0x100014E80, symSize: 0xB4 }
  - { offsetInCU: 0x148A6, offset: 0x148A6, size: 0x8, addend: 0x0, symName: __ZNSt3__114__unwrap_rangeB7v160006IPP14crawlerResultsS3_EENS_4pairIT0_S5_EET_S7_, symObjAddr: 0x13160, symBinAddr: 0x100014F34, symSize: 0x60 }
  - { offsetInCU: 0x14A24, offset: 0x14A24, size: 0x8, addend: 0x0, symName: __ZNSt3__113__unwrap_iterB7v160006IPP14crawlerResultsNS_18__unwrap_iter_implIS3_Lb1EEELi0EEEDTclsrT0_8__unwrapclsr3stdE7declvalIT_EEEES7_, symObjAddr: 0x13208, symBinAddr: 0x100014FDC, symSize: 0x24 }
  - { offsetInCU: 0x14A68, offset: 0x14A68, size: 0x8, addend: 0x0, symName: __ZNSt3__19make_pairB7v160006IPP14crawlerResultsS3_EENS_4pairINS_18__unwrap_ref_decayIT_E4typeENS5_IT0_E4typeEEEOS6_OS9_, symObjAddr: 0x1322C, symBinAddr: 0x100015000, symSize: 0x38 }
  - { offsetInCU: 0x14AB7, offset: 0x14AB7, size: 0x8, addend: 0x0, symName: __ZNSt3__114__rewrap_rangeB7v160006IPP14crawlerResultsS3_EET_S4_T0_, symObjAddr: 0x13264, symBinAddr: 0x100015038, symSize: 0x2C }
  - { offsetInCU: 0x14B03, offset: 0x14B03, size: 0x8, addend: 0x0, symName: __ZNSt3__113__rewrap_iterB7v160006IPP14crawlerResultsS3_NS_18__unwrap_iter_implIS3_Lb1EEEEET_S6_T0_, symObjAddr: 0x13290, symBinAddr: 0x100015064, symSize: 0x3C }
  - { offsetInCU: 0x14B58, offset: 0x14B58, size: 0x8, addend: 0x0, symName: __ZNSt3__119__copy_trivial_implB7v160006IP14crawlerResultsS2_EENS_4pairIPT_PT0_EES5_S5_S7_, symObjAddr: 0x132CC, symBinAddr: 0x1000150A0, symSize: 0x84 }
  - { offsetInCU: 0x14BC0, offset: 0x14BC0, size: 0x8, addend: 0x0, symName: __ZNSt3__19make_pairB7v160006IRPP14crawlerResultsS3_EENS_4pairINS_18__unwrap_ref_decayIT_E4typeENS6_IT0_E4typeEEEOS7_OSA_, symObjAddr: 0x13350, symBinAddr: 0x100015124, symSize: 0x38 }
  - { offsetInCU: 0x14C62, offset: 0x14C62, size: 0x8, addend: 0x0, symName: __ZNSt3__18distanceB7v160006INS_13move_iteratorIPP14crawlerResultsEEEENS_15iterator_traitsIT_E15difference_typeES7_S7_, symObjAddr: 0x134DC, symBinAddr: 0x1000152B0, symSize: 0x3C }
  - { offsetInCU: 0x14CA5, offset: 0x14CA5, size: 0x8, addend: 0x0, symName: __ZNSt3__110__distanceB7v160006INS_13move_iteratorIPP14crawlerResultsEEEENS_15iterator_traitsIT_E15difference_typeES7_S7_NS_26random_access_iterator_tagE, symObjAddr: 0x13614, symBinAddr: 0x1000153E8, symSize: 0x30 }
  - { offsetInCU: 0x14CF2, offset: 0x14CF2, size: 0x8, addend: 0x0, symName: __ZNSt3__1miB7v160006IPP14crawlerResultsS3_EEDTmicldtfp_4baseEcldtfp0_4baseEERKNS_13move_iteratorIT_EERKNS5_IT0_EE, symObjAddr: 0x13644, symBinAddr: 0x100015418, symSize: 0x48 }
  - { offsetInCU: 0x14D41, offset: 0x14D41, size: 0x8, addend: 0x0, symName: __ZNSt3__113move_backwardB7v160006IPP14crawlerResultsS3_EET0_T_S5_S4_, symObjAddr: 0x13858, symBinAddr: 0x10001562C, symSize: 0x40 }
  - { offsetInCU: 0x14D9B, offset: 0x14D9B, size: 0x8, addend: 0x0, symName: __ZNSt3__115__move_backwardB7v160006INS_17_ClassicAlgPolicyEPP14crawlerResultsS4_S4_EENS_4pairIT0_T2_EES6_T1_S7_, symObjAddr: 0x13898, symBinAddr: 0x10001566C, symSize: 0x44 }
  - { offsetInCU: 0x14E07, offset: 0x14E07, size: 0x8, addend: 0x0, symName: __ZNSt3__123__dispatch_copy_or_moveB7v160006INS_17_ClassicAlgPolicyENS_20__move_backward_loopIS1_EENS_23__move_backward_trivialEPP14crawlerResultsS7_S7_EENS_4pairIT2_T4_EES9_T3_SA_, symObjAddr: 0x138DC, symBinAddr: 0x1000156B0, symSize: 0x44 }
  - { offsetInCU: 0x14E85, offset: 0x14E85, size: 0x8, addend: 0x0, symName: __ZNSt3__121__unwrap_and_dispatchB7v160006INS_10__overloadINS_20__move_backward_loopINS_17_ClassicAlgPolicyEEENS_23__move_backward_trivialEEEPP14crawlerResultsS9_S9_Li0EEENS_4pairIT0_T2_EESB_T1_SC_, symObjAddr: 0x13920, symBinAddr: 0x1000156F4, symSize: 0xB4 }
  - { offsetInCU: 0x14F13, offset: 0x14F13, size: 0x8, addend: 0x0, symName: __ZNSt3__128__copy_backward_trivial_implB7v160006IP14crawlerResultsS2_EENS_4pairIPT_PT0_EES5_S5_S7_, symObjAddr: 0x13A1C, symBinAddr: 0x1000157F0, symSize: 0x94 }
  - { offsetInCU: 0x14F7B, offset: 0x14F7B, size: 0x8, addend: 0x0, symName: __ZNSt3__19make_pairB7v160006IRPP14crawlerResultsS4_EENS_4pairINS_18__unwrap_ref_decayIT_E4typeENS6_IT0_E4typeEEEOS7_OSA_, symObjAddr: 0x13AB0, symBinAddr: 0x100015884, symSize: 0x38 }
  - { offsetInCU: 0x14FCA, offset: 0x14FCA, size: 0x8, addend: 0x0, symName: __ZNSt3__119__allocate_at_leastB7v160006INS_9allocatorIP14crawlerResultsEEEENS_19__allocation_resultINS_16allocator_traitsIT_E7pointerEEERS7_m, symObjAddr: 0x13C68, symBinAddr: 0x100015A3C, symSize: 0x40 }
  - { offsetInCU: 0x1500D, offset: 0x1500D, size: 0x8, addend: 0x0, symName: __ZNSt3__112__to_addressB7v160006I14crawlerResultsEEPT_S3_, symObjAddr: 0x1453C, symBinAddr: 0x100016310, symSize: 0x14 }
  - { offsetInCU: 0x155A2, offset: 0x155A2, size: 0x8, addend: 0x0, symName: __ZSt28__throw_bad_array_new_lengthB7v160006v, symObjAddr: 0x2814, symBinAddr: 0x1000045E8, symSize: 0x34 }
  - { offsetInCU: 0x15B5E, offset: 0x15B5E, size: 0x8, addend: 0x0, symName: _crawlResultsQueue, symObjAddr: 0x906F8, symBinAddr: 0x10002E408, symSize: 0x0 }
  - { offsetInCU: 0x161B1, offset: 0x161B1, size: 0x8, addend: 0x0, symName: _indexHandler, symObjAddr: 0x90798, symBinAddr: 0x10002E4A8, symSize: 0x0 }
  - { offsetInCU: 0x17217, offset: 0x17217, size: 0x8, addend: 0x0, symName: _crawlPool, symObjAddr: 0x90880, symBinAddr: 0x10002E590, symSize: 0x0 }
  - { offsetInCU: 0x176FD, offset: 0x176FD, size: 0x8, addend: 0x0, symName: _parsePool, symObjAddr: 0x90940, symBinAddr: 0x10002E650, symSize: 0x0 }
  - { offsetInCU: 0x17715, offset: 0x17715, size: 0x8, addend: 0x0, symName: _main, symObjAddr: 0xD24, symBinAddr: 0x100002AF8, symSize: 0xE4 }
  - { offsetInCU: 0x1773B, offset: 0x1773B, size: 0x8, addend: 0x0, symName: __ZZ4mainE17NUM_CRAWL_THREADS, symObjAddr: 0x16150, symBinAddr: 0x100025A88, symSize: 0x0 }
  - { offsetInCU: 0x17751, offset: 0x17751, size: 0x8, addend: 0x0, symName: __ZZ4mainE18NUM_PARSER_THREADS, symObjAddr: 0x16154, symBinAddr: 0x100025A8C, symSize: 0x0 }
  - { offsetInCU: 0x17767, offset: 0x17767, size: 0x8, addend: 0x0, symName: __ZZ4mainE13MAX_PAGE_SIZE, symObjAddr: 0x16158, symBinAddr: 0x100025A90, symSize: 0x0 }
  - { offsetInCU: 0x17A46, offset: 0x17A46, size: 0x8, addend: 0x0, symName: __ZNSt3__16vectorIP17_opaque_pthread_tNS_9allocatorIS2_EEE26__swap_out_circular_bufferERNS_14__split_bufferIS2_RS4_EE, symObjAddr: 0x712C, symBinAddr: 0x100008F00, symSize: 0x118 }
  - { offsetInCU: 0x19E62, offset: 0x19E62, size: 0x8, addend: 0x0, symName: __ZN7HtmlTagC1EPKc13DesiredAction, symObjAddr: 0x0, symBinAddr: 0x100001DD4, symSize: 0x3C }
  - { offsetInCU: 0x19EA8, offset: 0x19EA8, size: 0x8, addend: 0x0, symName: __ZN18ThreadSafeFrontierC1Eid, symObjAddr: 0x3C, symBinAddr: 0x100001E10, symSize: 0x3C }
  - { offsetInCU: 0x19EEE, offset: 0x19EEE, size: 0x8, addend: 0x0, symName: __ZN18ThreadSafeFrontierD1Ev, symObjAddr: 0x78, symBinAddr: 0x100001E4C, symSize: 0x2C }
  - { offsetInCU: 0x19F18, offset: 0x19F18, size: 0x8, addend: 0x0, symName: __ZN15ThreadSafeQueueI14crawlerResultsEC1Ev, symObjAddr: 0xA4, symBinAddr: 0x100001E78, symSize: 0x2C }
  - { offsetInCU: 0x19F42, offset: 0x19F42, size: 0x8, addend: 0x0, symName: __ZN15ThreadSafeQueueI14crawlerResultsED1Ev, symObjAddr: 0xD0, symBinAddr: 0x100001EA4, symSize: 0x2C }
  - { offsetInCU: 0x19F6C, offset: 0x19F6C, size: 0x8, addend: 0x0, symName: __ZN17IndexWriteHandlerC1EPKc, symObjAddr: 0xFC, symBinAddr: 0x100001ED0, symSize: 0x34 }
  - { offsetInCU: 0x19FA5, offset: 0x19FA5, size: 0x8, addend: 0x0, symName: __ZN17IndexWriteHandlerD1Ev, symObjAddr: 0x130, symBinAddr: 0x100001F04, symSize: 0x2C }
  - { offsetInCU: 0x19FCF, offset: 0x19FCF, size: 0x8, addend: 0x0, symName: __ZN10ThreadPoolC1Em, symObjAddr: 0x15C, symBinAddr: 0x100001F30, symSize: 0x34 }
  - { offsetInCU: 0x1A007, offset: 0x1A007, size: 0x8, addend: 0x0, symName: __ZN10ThreadPoolD1Ev, symObjAddr: 0x190, symBinAddr: 0x100001F64, symSize: 0x2C }
  - { offsetInCU: 0x1A031, offset: 0x1A031, size: 0x8, addend: 0x0, symName: __Z8crawlUrlPv, symObjAddr: 0x1BC, symBinAddr: 0x100001F90, symSize: 0x1E8 }
  - { offsetInCU: 0x1A09C, offset: 0x1A09C, size: 0x8, addend: 0x0, symName: __ZN18ThreadSafeFrontier16getNextURLorWaitEv, symObjAddr: 0x3A4, symBinAddr: 0x100002178, symSize: 0xE4 }
  - { offsetInCU: 0x1A0E6, offset: 0x1A0E6, size: 0x8, addend: 0x0, symName: __ZN9ParsedUrlC1ERK6string, symObjAddr: 0x488, symBinAddr: 0x10000225C, symSize: 0x34 }
  - { offsetInCU: 0x1A11E, offset: 0x1A11E, size: 0x8, addend: 0x0, symName: __ZN6stringD1Ev, symObjAddr: 0x4BC, symBinAddr: 0x100002290, symSize: 0x2C }
  - { offsetInCU: 0x1A148, offset: 0x1A148, size: 0x8, addend: 0x0, symName: __ZN6vectorIcEC1Em, symObjAddr: 0x4E8, symBinAddr: 0x1000022BC, symSize: 0x34 }
  - { offsetInCU: 0x1A230, offset: 0x1A230, size: 0x8, addend: 0x0, symName: __ZNSt3__113basic_ostreamIcNS_11char_traitsIcEEElsB7v160006EPFRS3_S4_E, symObjAddr: 0x51C, symBinAddr: 0x1000022F0, symSize: 0x2C }
  - { offsetInCU: 0x1A264, offset: 0x1A264, size: 0x8, addend: 0x0, symName: __ZN9ParsedUrlC1ERKS_, symObjAddr: 0x5A0, symBinAddr: 0x100002374, symSize: 0x34 }
  - { offsetInCU: 0x1A299, offset: 0x1A299, size: 0x8, addend: 0x0, symName: __ZN6vectorIcE4dataEv, symObjAddr: 0x5D4, symBinAddr: 0x1000023A8, symSize: 0x18 }
  - { offsetInCU: 0x1A2BF, offset: 0x1A2BF, size: 0x8, addend: 0x0, symName: __ZN9ParsedUrlD1Ev, symObjAddr: 0x5EC, symBinAddr: 0x1000023C0, symSize: 0x2C }
  - { offsetInCU: 0x1A2E9, offset: 0x1A2E9, size: 0x8, addend: 0x0, symName: __ZN14crawlerResultsC1ERK9ParsedUrlRK6vectorIcEm, symObjAddr: 0x618, symBinAddr: 0x1000023EC, symSize: 0x44 }
  - { offsetInCU: 0x1A33D, offset: 0x1A33D, size: 0x8, addend: 0x0, symName: __ZN15ThreadSafeQueueI14crawlerResultsE3putERKS0_, symObjAddr: 0x65C, symBinAddr: 0x100002430, symSize: 0x54 }
  - { offsetInCU: 0x1A371, offset: 0x1A371, size: 0x8, addend: 0x0, symName: __ZN10ThreadPool6submitEPFvPvES0_, symObjAddr: 0x6B0, symBinAddr: 0x100002484, symSize: 0x6C }
  - { offsetInCU: 0x1A3B3, offset: 0x1A3B3, size: 0x8, addend: 0x0, symName: __Z9parseFuncPv, symObjAddr: 0x71C, symBinAddr: 0x1000024F0, symSize: 0x198 }
  - { offsetInCU: 0x1A445, offset: 0x1A445, size: 0x8, addend: 0x0, symName: __ZN10ThreadPool4wakeEv, symObjAddr: 0x8B4, symBinAddr: 0x100002688, symSize: 0x28 }
  - { offsetInCU: 0x1A46B, offset: 0x1A46B, size: 0x8, addend: 0x0, symName: __ZN14crawlerResultsD1Ev, symObjAddr: 0x8DC, symBinAddr: 0x1000026B0, symSize: 0x2C }
  - { offsetInCU: 0x1A497, offset: 0x1A497, size: 0x8, addend: 0x0, symName: __ZN6vectorIcED1Ev, symObjAddr: 0x908, symBinAddr: 0x1000026DC, symSize: 0x2C }
  - { offsetInCU: 0x1A4C1, offset: 0x1A4C1, size: 0x8, addend: 0x0, symName: __ZN15ThreadSafeQueueI14crawlerResultsE3getEv, symObjAddr: 0x934, symBinAddr: 0x100002708, symSize: 0xEC }
  - { offsetInCU: 0x1A4F6, offset: 0x1A4F6, size: 0x8, addend: 0x0, symName: __ZN6vectorI4LinkE5beginEv, symObjAddr: 0xA20, symBinAddr: 0x1000027F4, symSize: 0x18 }
  - { offsetInCU: 0x1A51C, offset: 0x1A51C, size: 0x8, addend: 0x0, symName: __ZN6vectorI4LinkE3endEv, symObjAddr: 0xA38, symBinAddr: 0x10000280C, symSize: 0x28 }
  - { offsetInCU: 0x1A542, offset: 0x1A542, size: 0x8, addend: 0x0, symName: __ZN18ThreadSafeFrontier6insertERK6string, symObjAddr: 0xA60, symBinAddr: 0x100002834, symSize: 0xB8 }
  - { offsetInCU: 0x1A592, offset: 0x1A592, size: 0x8, addend: 0x0, symName: __ZN17IndexWriteHandler11addDocumentER10HtmlParser, symObjAddr: 0xB18, symBinAddr: 0x1000028EC, symSize: 0x170 }
  - { offsetInCU: 0x1A5E5, offset: 0x1A5E5, size: 0x8, addend: 0x0, symName: __ZN18ThreadSafeFrontier5emptyEv, symObjAddr: 0xC88, symBinAddr: 0x100002A5C, symSize: 0x70 }
  - { offsetInCU: 0x1A620, offset: 0x1A620, size: 0x8, addend: 0x0, symName: __ZN10HtmlParserD1Ev, symObjAddr: 0xCF8, symBinAddr: 0x100002ACC, symSize: 0x2C }
  - { offsetInCU: 0x1A64C, offset: 0x1A64C, size: 0x8, addend: 0x0, symName: __ZN6stringC1EPKc, symObjAddr: 0xE08, symBinAddr: 0x100002BDC, symSize: 0x34 }
  - { offsetInCU: 0x1A684, offset: 0x1A684, size: 0x8, addend: 0x0, symName: __ZN7HtmlTagC2EPKc13DesiredAction, symObjAddr: 0xE3C, symBinAddr: 0x100002C10, symSize: 0x2C }
  - { offsetInCU: 0x1A6CA, offset: 0x1A6CA, size: 0x8, addend: 0x0, symName: __ZN18ThreadSafeFrontierC2Eid, symObjAddr: 0xE68, symBinAddr: 0x100002C3C, symSize: 0xC0 }
  - { offsetInCU: 0x1A710, offset: 0x1A710, size: 0x8, addend: 0x0, symName: __ZN8UrlQueueC1Ev, symObjAddr: 0xF28, symBinAddr: 0x100002CFC, symSize: 0x2C }
  - { offsetInCU: 0x1A73A, offset: 0x1A73A, size: 0x8, addend: 0x0, symName: __ZN11BloomfilterC1Eid, symObjAddr: 0xF54, symBinAddr: 0x100002D28, symSize: 0x3C }
  - { offsetInCU: 0x1A780, offset: 0x1A780, size: 0x8, addend: 0x0, symName: __ZN16ReaderWriterLockC1Ev, symObjAddr: 0xF90, symBinAddr: 0x100002D64, symSize: 0x2C }
  - { offsetInCU: 0x1A7AA, offset: 0x1A7AA, size: 0x8, addend: 0x0, symName: __ZN11BloomfilterD1Ev, symObjAddr: 0xFBC, symBinAddr: 0x100002D90, symSize: 0x2C }
  - { offsetInCU: 0x1A7D6, offset: 0x1A7D6, size: 0x8, addend: 0x0, symName: __ZN8UrlQueueD1Ev, symObjAddr: 0xFE8, symBinAddr: 0x100002DBC, symSize: 0x2C }
  - { offsetInCU: 0x1A802, offset: 0x1A802, size: 0x8, addend: 0x0, symName: __ZN8UrlQueueC2Ev, symObjAddr: 0x1014, symBinAddr: 0x100002DE8, symSize: 0x40 }
  - { offsetInCU: 0x1A82C, offset: 0x1A82C, size: 0x8, addend: 0x0, symName: __ZN6vectorI6stringEC1Ev, symObjAddr: 0x1054, symBinAddr: 0x100002E28, symSize: 0x2C }
  - { offsetInCU: 0x1A856, offset: 0x1A856, size: 0x8, addend: 0x0, symName: __ZNSt3__15queueI6stringNS_5dequeIS1_NS_9allocatorIS1_EEEEEC1B7v160006Ev, symObjAddr: 0x1080, symBinAddr: 0x100002E54, symSize: 0x2C }
  - { offsetInCU: 0x1A880, offset: 0x1A880, size: 0x8, addend: 0x0, symName: __ZN6vectorI6stringEC2Ev, symObjAddr: 0x10AC, symBinAddr: 0x100002E80, symSize: 0x30 }
  - { offsetInCU: 0x1A8AA, offset: 0x1A8AA, size: 0x8, addend: 0x0, symName: __ZN6vectorI6stringE5resetEv, symObjAddr: 0x10DC, symBinAddr: 0x100002EB0, symSize: 0xB8 }
  - { offsetInCU: 0x1A8D0, offset: 0x1A8D0, size: 0x8, addend: 0x0, symName: __ZNSt3__15queueI6stringNS_5dequeIS1_NS_9allocatorIS1_EEEEEC2B7v160006Ev, symObjAddr: 0x1194, symBinAddr: 0x100002F68, symSize: 0x2C }
  - { offsetInCU: 0x1A8FA, offset: 0x1A8FA, size: 0x8, addend: 0x0, symName: __ZNSt3__15dequeI6stringNS_9allocatorIS1_EEEC1B7v160006Ev, symObjAddr: 0x11C0, symBinAddr: 0x100002F94, symSize: 0x2C }
  - { offsetInCU: 0x1A924, offset: 0x1A924, size: 0x8, addend: 0x0, symName: __ZNSt3__15dequeI6stringNS_9allocatorIS1_EEEC2B7v160006Ev, symObjAddr: 0x11EC, symBinAddr: 0x100002FC0, symSize: 0x50 }
  - { offsetInCU: 0x1A94E, offset: 0x1A94E, size: 0x8, addend: 0x0, symName: __ZNSt3__114__split_bufferIP6stringNS_9allocatorIS2_EEEC1Ev, symObjAddr: 0x123C, symBinAddr: 0x100003010, symSize: 0x2C }
  - { offsetInCU: 0x1A984, offset: 0x1A984, size: 0x8, addend: 0x0, symName: __ZNSt3__117__compressed_pairImNS_9allocatorI6stringEEEC1B7v160006IiNS_18__default_init_tagEEEOT_OT0_, symObjAddr: 0x1268, symBinAddr: 0x10000303C, symSize: 0x3C }
  - { offsetInCU: 0x1A9DC, offset: 0x1A9DC, size: 0x8, addend: 0x0, symName: __ZNSt3__114__split_bufferIP6stringNS_9allocatorIS2_EEEC2Ev, symObjAddr: 0x12B0, symBinAddr: 0x100003084, symSize: 0x50 }
  - { offsetInCU: 0x1AA0D, offset: 0x1AA0D, size: 0x8, addend: 0x0, symName: __ZNSt3__117__compressed_pairIPP6stringNS_9allocatorIS2_EEEC1B7v160006IDnNS_18__default_init_tagEEEOT_OT0_, symObjAddr: 0x1300, symBinAddr: 0x1000030D4, symSize: 0x3C }
  - { offsetInCU: 0x1AA65, offset: 0x1AA65, size: 0x8, addend: 0x0, symName: __ZNSt3__117__compressed_pairIPP6stringNS_9allocatorIS2_EEEC2B7v160006IDnNS_18__default_init_tagEEEOT_OT0_, symObjAddr: 0x133C, symBinAddr: 0x100003110, symSize: 0x40 }
  - { offsetInCU: 0x1AABD, offset: 0x1AABD, size: 0x8, addend: 0x0, symName: __ZNSt3__122__compressed_pair_elemIPP6stringLi0ELb0EEC2B7v160006IDnvEEOT_, symObjAddr: 0x137C, symBinAddr: 0x100003150, symSize: 0x1C }
  - { offsetInCU: 0x1AAFF, offset: 0x1AAFF, size: 0x8, addend: 0x0, symName: __ZNSt3__122__compressed_pair_elemINS_9allocatorIP6stringEELi1ELb1EEC2B7v160006ENS_18__default_init_tagE, symObjAddr: 0x1398, symBinAddr: 0x10000316C, symSize: 0x2C }
  - { offsetInCU: 0x1AB33, offset: 0x1AB33, size: 0x8, addend: 0x0, symName: __ZNSt3__19allocatorIP6stringEC2B7v160006Ev, symObjAddr: 0x13C4, symBinAddr: 0x100003198, symSize: 0x2C }
  - { offsetInCU: 0x1AB5D, offset: 0x1AB5D, size: 0x8, addend: 0x0, symName: __ZNSt3__116__non_trivial_ifILb1ENS_9allocatorIP6stringEEEC2B7v160006Ev, symObjAddr: 0x13F0, symBinAddr: 0x1000031C4, symSize: 0x14 }
  - { offsetInCU: 0x1AB87, offset: 0x1AB87, size: 0x8, addend: 0x0, symName: __ZNSt3__117__compressed_pairImNS_9allocatorI6stringEEEC2B7v160006IiNS_18__default_init_tagEEEOT_OT0_, symObjAddr: 0x1404, symBinAddr: 0x1000031D8, symSize: 0x40 }
  - { offsetInCU: 0x1ABDF, offset: 0x1ABDF, size: 0x8, addend: 0x0, symName: __ZNSt3__122__compressed_pair_elemImLi0ELb0EEC2B7v160006IivEEOT_, symObjAddr: 0x1444, symBinAddr: 0x100003218, symSize: 0x24 }
  - { offsetInCU: 0x1AC21, offset: 0x1AC21, size: 0x8, addend: 0x0, symName: __ZNSt3__122__compressed_pair_elemINS_9allocatorI6stringEELi1ELb1EEC2B7v160006ENS_18__default_init_tagE, symObjAddr: 0x1468, symBinAddr: 0x10000323C, symSize: 0x2C }
  - { offsetInCU: 0x1AC55, offset: 0x1AC55, size: 0x8, addend: 0x0, symName: __ZNSt3__19allocatorI6stringEC2B7v160006Ev, symObjAddr: 0x1494, symBinAddr: 0x100003268, symSize: 0x2C }
  - { offsetInCU: 0x1AC7F, offset: 0x1AC7F, size: 0x8, addend: 0x0, symName: __ZNSt3__116__non_trivial_ifILb1ENS_9allocatorI6stringEEEC2B7v160006Ev, symObjAddr: 0x14C0, symBinAddr: 0x100003294, symSize: 0x14 }
  - { offsetInCU: 0x1ACA9, offset: 0x1ACA9, size: 0x8, addend: 0x0, symName: __ZN11BloomfilterC2Eid, symObjAddr: 0x14D4, symBinAddr: 0x1000032A8, symSize: 0x118 }
  - { offsetInCU: 0x1AD12, offset: 0x1AD12, size: 0x8, addend: 0x0, symName: __ZNSt3__16vectorIbNS_9allocatorIbEEEC1B7v160006Ev, symObjAddr: 0x15EC, symBinAddr: 0x1000033C0, symSize: 0x2C }
  - { offsetInCU: 0x1AD3D, offset: 0x1AD3D, size: 0x8, addend: 0x0, symName: __Z3logB7v160006IiENSt3__19enable_ifIXsr3std11is_integralIT_EE5valueEdE4typeES2_, symObjAddr: 0x1618, symBinAddr: 0x1000033EC, symSize: 0x30 }
  - { offsetInCU: 0x1AD75, offset: 0x1AD75, size: 0x8, addend: 0x0, symName: __ZNSt3__16vectorIbNS_9allocatorIbEEE6resizeEmb, symObjAddr: 0x1648, symBinAddr: 0x10000341C, symSize: 0x220 }
  - { offsetInCU: 0x1AE17, offset: 0x1AE17, size: 0x8, addend: 0x0, symName: __ZNSt3__16vectorIbNS_9allocatorIbEEED1B7v160006Ev, symObjAddr: 0x1868, symBinAddr: 0x10000363C, symSize: 0x2C }
  - { offsetInCU: 0x1AE41, offset: 0x1AE41, size: 0x8, addend: 0x0, symName: __ZNSt3__16vectorIbNS_9allocatorIbEEEC2B7v160006Ev, symObjAddr: 0x1894, symBinAddr: 0x100003668, symSize: 0x4C }
  - { offsetInCU: 0x1AE6D, offset: 0x1AE6D, size: 0x8, addend: 0x0, symName: __ZNSt3__117__compressed_pairImNS_9allocatorImEEEC1B7v160006IiNS_18__default_init_tagEEEOT_OT0_, symObjAddr: 0x18E0, symBinAddr: 0x1000036B4, symSize: 0x3C }
  - { offsetInCU: 0x1AEC5, offset: 0x1AEC5, size: 0x8, addend: 0x0, symName: __ZNSt3__117__compressed_pairImNS_9allocatorImEEEC2B7v160006IiNS_18__default_init_tagEEEOT_OT0_, symObjAddr: 0x191C, symBinAddr: 0x1000036F0, symSize: 0x40 }
  - { offsetInCU: 0x1AF1D, offset: 0x1AF1D, size: 0x8, addend: 0x0, symName: __ZNSt3__122__compressed_pair_elemINS_9allocatorImEELi1ELb1EEC2B7v160006ENS_18__default_init_tagE, symObjAddr: 0x195C, symBinAddr: 0x100003730, symSize: 0x2C }
  - { offsetInCU: 0x1AF51, offset: 0x1AF51, size: 0x8, addend: 0x0, symName: __ZNSt3__19allocatorImEC2B7v160006Ev, symObjAddr: 0x1988, symBinAddr: 0x10000375C, symSize: 0x2C }
  - { offsetInCU: 0x1AF7B, offset: 0x1AF7B, size: 0x8, addend: 0x0, symName: __ZNSt3__116__non_trivial_ifILb1ENS_9allocatorImEEEC2B7v160006Ev, symObjAddr: 0x19B4, symBinAddr: 0x100003788, symSize: 0x14 }
  - { offsetInCU: 0x1AFA5, offset: 0x1AFA5, size: 0x8, addend: 0x0, symName: __ZNKSt3__16vectorIbNS_9allocatorIbEEE4sizeB7v160006Ev, symObjAddr: 0x19C8, symBinAddr: 0x10000379C, symSize: 0x18 }
  - { offsetInCU: 0x1AFCB, offset: 0x1AFCB, size: 0x8, addend: 0x0, symName: __ZNSt3__114__bit_iteratorINS_6vectorIbNS_9allocatorIbEEEELb0ELm0EEC1B7v160006Ev, symObjAddr: 0x19E0, symBinAddr: 0x1000037B4, symSize: 0x2C }
  - { offsetInCU: 0x1AFF5, offset: 0x1AFF5, size: 0x8, addend: 0x0, symName: __ZNKSt3__16vectorIbNS_9allocatorIbEEE8capacityB7v160006Ev, symObjAddr: 0x1A0C, symBinAddr: 0x1000037E0, symSize: 0x2C }
  - { offsetInCU: 0x1B01B, offset: 0x1B01B, size: 0x8, addend: 0x0, symName: __ZNSt3__16vectorIbNS_9allocatorIbEEE3endB7v160006Ev, symObjAddr: 0x1A38, symBinAddr: 0x10000380C, symSize: 0x30 }
  - { offsetInCU: 0x1B041, offset: 0x1B041, size: 0x8, addend: 0x0, symName: __ZNSt3__114__bit_iteratorINS_6vectorIbNS_9allocatorIbEEEELb0ELm0EEaSB7v160006ERKS5_, symObjAddr: 0x1A68, symBinAddr: 0x10000383C, symSize: 0x30 }
  - { offsetInCU: 0x1B076, offset: 0x1B076, size: 0x8, addend: 0x0, symName: __ZNKSt3__16vectorIbNS_9allocatorIbEEE13get_allocatorB7v160006Ev, symObjAddr: 0x1A98, symBinAddr: 0x10000386C, symSize: 0x30 }
  - { offsetInCU: 0x1B09C, offset: 0x1B09C, size: 0x8, addend: 0x0, symName: __ZNSt3__16vectorIbNS_9allocatorIbEEEC1B7v160006ERKS2_, symObjAddr: 0x1AC8, symBinAddr: 0x10000389C, symSize: 0x34 }
  - { offsetInCU: 0x1B0D7, offset: 0x1B0D7, size: 0x8, addend: 0x0, symName: __ZNSt3__16vectorIbNS_9allocatorIbEEE7reserveEm, symObjAddr: 0x1AFC, symBinAddr: 0x1000038D0, symSize: 0x114 }
  - { offsetInCU: 0x1B124, offset: 0x1B124, size: 0x8, addend: 0x0, symName: __ZNKSt3__16vectorIbNS_9allocatorIbEEE11__recommendB7v160006Em, symObjAddr: 0x1C10, symBinAddr: 0x1000039E4, symSize: 0xCC }
  - { offsetInCU: 0x1B179, offset: 0x1B179, size: 0x8, addend: 0x0, symName: __ZNKSt3__16vectorIbNS_9allocatorIbEEE6cbeginB7v160006Ev, symObjAddr: 0x1DB0, symBinAddr: 0x100003B84, symSize: 0x38 }
  - { offsetInCU: 0x1B19F, offset: 0x1B19F, size: 0x8, addend: 0x0, symName: __ZNKSt3__16vectorIbNS_9allocatorIbEEE4cendB7v160006Ev, symObjAddr: 0x1DE8, symBinAddr: 0x100003BBC, symSize: 0x38 }
  - { offsetInCU: 0x1B1C5, offset: 0x1B1C5, size: 0x8, addend: 0x0, symName: __ZNSt3__16vectorIbNS_9allocatorIbEEE5beginB7v160006Ev, symObjAddr: 0x1E20, symBinAddr: 0x100003BF4, symSize: 0x30 }
  - { offsetInCU: 0x1B1EB, offset: 0x1B1EB, size: 0x8, addend: 0x0, symName: __ZNSt3__16vectorIbNS_9allocatorIbEEE4swapERS3_, symObjAddr: 0x1E50, symBinAddr: 0x100003C24, symSize: 0x84 }
  - { offsetInCU: 0x1B222, offset: 0x1B222, size: 0x8, addend: 0x0, symName: __ZNSt3__114__bit_iteratorINS_6vectorIbNS_9allocatorIbEEEELb0ELm0EEC1B7v160006ERKS5_, symObjAddr: 0x1F68, symBinAddr: 0x100003D3C, symSize: 0x34 }
  - { offsetInCU: 0x1B25B, offset: 0x1B25B, size: 0x8, addend: 0x0, symName: __ZNSt3__114__bit_iteratorINS_6vectorIbNS_9allocatorIbEEEELb0ELm0EEC2B7v160006Ev, symObjAddr: 0x1F9C, symBinAddr: 0x100003D70, symSize: 0x14 }
  - { offsetInCU: 0x1B285, offset: 0x1B285, size: 0x8, addend: 0x0, symName: __ZNSt3__16vectorIbNS_9allocatorIbEEE26__internal_cap_to_externalB7v160006Em, symObjAddr: 0x1FB0, symBinAddr: 0x100003D84, symSize: 0x18 }
  - { offsetInCU: 0x1B2A9, offset: 0x1B2A9, size: 0x8, addend: 0x0, symName: __ZNKSt3__16vectorIbNS_9allocatorIbEEE5__capB7v160006Ev, symObjAddr: 0x1FC8, symBinAddr: 0x100003D9C, symSize: 0x28 }
  - { offsetInCU: 0x1B2CF, offset: 0x1B2CF, size: 0x8, addend: 0x0, symName: __ZNKSt3__117__compressed_pairImNS_9allocatorImEEE5firstB7v160006Ev, symObjAddr: 0x1FF0, symBinAddr: 0x100003DC4, symSize: 0x24 }
  - { offsetInCU: 0x1B2F5, offset: 0x1B2F5, size: 0x8, addend: 0x0, symName: __ZNKSt3__122__compressed_pair_elemImLi0ELb0EE5__getB7v160006Ev, symObjAddr: 0x2014, symBinAddr: 0x100003DE8, symSize: 0x14 }
  - { offsetInCU: 0x1B31B, offset: 0x1B31B, size: 0x8, addend: 0x0, symName: __ZNSt3__16vectorIbNS_9allocatorIbEEE11__make_iterB7v160006Em, symObjAddr: 0x2028, symBinAddr: 0x100003DFC, symSize: 0x64 }
  - { offsetInCU: 0x1B350, offset: 0x1B350, size: 0x8, addend: 0x0, symName: __ZNSt3__114__bit_iteratorINS_6vectorIbNS_9allocatorIbEEEELb0ELm0EEC1B7v160006EPmj, symObjAddr: 0x208C, symBinAddr: 0x100003E60, symSize: 0x3C }
  - { offsetInCU: 0x1B398, offset: 0x1B398, size: 0x8, addend: 0x0, symName: __ZNSt3__114__bit_iteratorINS_6vectorIbNS_9allocatorIbEEEELb0ELm0EEC2B7v160006EPmj, symObjAddr: 0x20C8, symBinAddr: 0x100003E9C, symSize: 0x2C }
  - { offsetInCU: 0x1B3E0, offset: 0x1B3E0, size: 0x8, addend: 0x0, symName: __ZNKSt3__16vectorIbNS_9allocatorIbEEE7__allocB7v160006Ev, symObjAddr: 0x20F4, symBinAddr: 0x100003EC8, symSize: 0x28 }
  - { offsetInCU: 0x1B406, offset: 0x1B406, size: 0x8, addend: 0x0, symName: __ZNSt3__19allocatorIbEC1B7v160006ImEERKNS0_IT_EE, symObjAddr: 0x211C, symBinAddr: 0x100003EF0, symSize: 0x34 }
  - { offsetInCU: 0x1B443, offset: 0x1B443, size: 0x8, addend: 0x0, symName: __ZNKSt3__117__compressed_pairImNS_9allocatorImEEE6secondB7v160006Ev, symObjAddr: 0x2150, symBinAddr: 0x100003F24, symSize: 0x24 }
  - { offsetInCU: 0x1B469, offset: 0x1B469, size: 0x8, addend: 0x0, symName: __ZNKSt3__122__compressed_pair_elemINS_9allocatorImEELi1ELb1EE5__getB7v160006Ev, symObjAddr: 0x2174, symBinAddr: 0x100003F48, symSize: 0x14 }
  - { offsetInCU: 0x1B48F, offset: 0x1B48F, size: 0x8, addend: 0x0, symName: __ZNSt3__19allocatorIbEC2B7v160006ImEERKNS0_IT_EE, symObjAddr: 0x2188, symBinAddr: 0x100003F5C, symSize: 0x30 }
  - { offsetInCU: 0x1B4CC, offset: 0x1B4CC, size: 0x8, addend: 0x0, symName: __ZNSt3__116__non_trivial_ifILb1ENS_9allocatorIbEEEC2B7v160006Ev, symObjAddr: 0x21B8, symBinAddr: 0x100003F8C, symSize: 0x14 }
  - { offsetInCU: 0x1B4F6, offset: 0x1B4F6, size: 0x8, addend: 0x0, symName: __ZNSt3__16vectorIbNS_9allocatorIbEEEC2B7v160006ERKS2_, symObjAddr: 0x21CC, symBinAddr: 0x100003FA0, symSize: 0x6C }
  - { offsetInCU: 0x1B536, offset: 0x1B536, size: 0x8, addend: 0x0, symName: __ZNSt3__19allocatorImEC1B7v160006IbEERKNS0_IT_EE, symObjAddr: 0x2238, symBinAddr: 0x10000400C, symSize: 0x34 }
  - { offsetInCU: 0x1B578, offset: 0x1B578, size: 0x8, addend: 0x0, symName: __ZNSt3__117__compressed_pairImNS_9allocatorImEEEC1B7v160006IiS2_EEOT_OT0_, symObjAddr: 0x226C, symBinAddr: 0x100004040, symSize: 0x3C }
  - { offsetInCU: 0x1B5D0, offset: 0x1B5D0, size: 0x8, addend: 0x0, symName: __ZNSt3__19allocatorImEC2B7v160006IbEERKNS0_IT_EE, symObjAddr: 0x22A8, symBinAddr: 0x10000407C, symSize: 0x30 }
  - { offsetInCU: 0x1B60D, offset: 0x1B60D, size: 0x8, addend: 0x0, symName: __ZNSt3__117__compressed_pairImNS_9allocatorImEEEC2B7v160006IiS2_EEOT_OT0_, symObjAddr: 0x22D8, symBinAddr: 0x1000040AC, symSize: 0x44 }
  - { offsetInCU: 0x1B665, offset: 0x1B665, size: 0x8, addend: 0x0, symName: __ZNSt3__122__compressed_pair_elemINS_9allocatorImEELi1ELb1EEC2B7v160006IS2_vEEOT_, symObjAddr: 0x231C, symBinAddr: 0x1000040F0, symSize: 0x18 }
  - { offsetInCU: 0x1B6A7, offset: 0x1B6A7, size: 0x8, addend: 0x0, symName: __ZNKSt3__16vectorIbNS_9allocatorIbEEE8max_sizeEv, symObjAddr: 0x2334, symBinAddr: 0x100004108, symSize: 0x7C }
  - { offsetInCU: 0x1B6ED, offset: 0x1B6ED, size: 0x8, addend: 0x0, symName: __ZNKSt3__16vectorIbNS_9allocatorIbEEE20__throw_length_errorB7v160006Ev, symObjAddr: 0x23B0, symBinAddr: 0x100004184, symSize: 0x1C }
  - { offsetInCU: 0x1B713, offset: 0x1B713, size: 0x8, addend: 0x0, symName: __ZNSt3__16vectorIbNS_9allocatorIbEEE11__vallocateB7v160006Em, symObjAddr: 0x23CC, symBinAddr: 0x1000041A0, symSize: 0xA0 }
  - { offsetInCU: 0x1B757, offset: 0x1B757, size: 0x8, addend: 0x0, symName: __ZNSt3__16vectorIbNS_9allocatorIbEEE18__construct_at_endINS_14__bit_iteratorIS3_Lb0ELm0EEEEENS_9enable_ifIXsr27__is_cpp17_forward_iteratorIT_EE5valueEvE4typeES8_S8_, symObjAddr: 0x246C, symBinAddr: 0x100004240, symSize: 0x154 }
  - { offsetInCU: 0x1B7C1, offset: 0x1B7C1, size: 0x8, addend: 0x0, symName: __ZNSt3__116allocator_traitsINS_9allocatorImEEE8max_sizeB7v160006IS2_vEEmRKS2_, symObjAddr: 0x25D0, symBinAddr: 0x1000043A4, symSize: 0x24 }
  - { offsetInCU: 0x1B7EF, offset: 0x1B7EF, size: 0x8, addend: 0x0, symName: __ZNSt3__114numeric_limitsImE3maxB7v160006Ev, symObjAddr: 0x25F4, symBinAddr: 0x1000043C8, symSize: 0x14 }
  - { offsetInCU: 0x1B803, offset: 0x1B803, size: 0x8, addend: 0x0, symName: __ZNKSt3__19allocatorImE8max_sizeB7v160006Ev, symObjAddr: 0x2608, symBinAddr: 0x1000043DC, symSize: 0x14 }
  - { offsetInCU: 0x1B829, offset: 0x1B829, size: 0x8, addend: 0x0, symName: __ZNSt3__123__libcpp_numeric_limitsImLb1EE3maxB7v160006Ev, symObjAddr: 0x261C, symBinAddr: 0x1000043F0, symSize: 0x8 }
  - { offsetInCU: 0x1B83D, offset: 0x1B83D, size: 0x8, addend: 0x0, symName: __ZNSt12length_errorC1B7v160006EPKc, symObjAddr: 0x2688, symBinAddr: 0x10000445C, symSize: 0x34 }
  - { offsetInCU: 0x1B875, offset: 0x1B875, size: 0x8, addend: 0x0, symName: __ZNSt12length_errorC2B7v160006EPKc, symObjAddr: 0x26BC, symBinAddr: 0x100004490, symSize: 0x4C }
  - { offsetInCU: 0x1B8AD, offset: 0x1B8AD, size: 0x8, addend: 0x0, symName: __ZNSt3__16vectorIbNS_9allocatorIbEEE7__allocB7v160006Ev, symObjAddr: 0x2748, symBinAddr: 0x10000451C, symSize: 0x28 }
  - { offsetInCU: 0x1B8D3, offset: 0x1B8D3, size: 0x8, addend: 0x0, symName: __ZNSt3__16vectorIbNS_9allocatorIbEEE26__external_cap_to_internalB7v160006Em, symObjAddr: 0x2770, symBinAddr: 0x100004544, symSize: 0x24 }
  - { offsetInCU: 0x1B8F7, offset: 0x1B8F7, size: 0x8, addend: 0x0, symName: __ZNSt3__16vectorIbNS_9allocatorIbEEE5__capB7v160006Ev, symObjAddr: 0x2794, symBinAddr: 0x100004568, symSize: 0x28 }
  - { offsetInCU: 0x1B91D, offset: 0x1B91D, size: 0x8, addend: 0x0, symName: __ZNSt3__19allocatorImE8allocateB7v160006Em, symObjAddr: 0x27BC, symBinAddr: 0x100004590, symSize: 0x58 }
  - { offsetInCU: 0x1B951, offset: 0x1B951, size: 0x8, addend: 0x0, symName: __ZNSt3__117__compressed_pairImNS_9allocatorImEEE6secondB7v160006Ev, symObjAddr: 0x2894, symBinAddr: 0x100004668, symSize: 0x24 }
  - { offsetInCU: 0x1B977, offset: 0x1B977, size: 0x8, addend: 0x0, symName: __ZNSt3__122__compressed_pair_elemINS_9allocatorImEELi1ELb1EE5__getB7v160006Ev, symObjAddr: 0x28B8, symBinAddr: 0x10000468C, symSize: 0x14 }
  - { offsetInCU: 0x1B99D, offset: 0x1B99D, size: 0x8, addend: 0x0, symName: __ZNSt3__117__compressed_pairImNS_9allocatorImEEE5firstB7v160006Ev, symObjAddr: 0x28CC, symBinAddr: 0x1000046A0, symSize: 0x24 }
  - { offsetInCU: 0x1B9C3, offset: 0x1B9C3, size: 0x8, addend: 0x0, symName: __ZNSt3__122__compressed_pair_elemImLi0ELb0EE5__getB7v160006Ev, symObjAddr: 0x28F0, symBinAddr: 0x1000046C4, symSize: 0x14 }
  - { offsetInCU: 0x1B9FD, offset: 0x1B9FD, size: 0x8, addend: 0x0, symName: __ZNKSt3__16__lessIllEclB7v160006ERKlS3_, symObjAddr: 0x3358, symBinAddr: 0x10000512C, symSize: 0x34 }
  - { offsetInCU: 0x1BA62, offset: 0x1BA62, size: 0x8, addend: 0x0, symName: __ZNKSt3__114__copy_trivialclB7v160006ImmLi0EEENS_4pairIPT_PT0_EES4_S4_S6_, symObjAddr: 0x3568, symBinAddr: 0x10000533C, symSize: 0x48 }
  - { offsetInCU: 0x1BAD4, offset: 0x1BAD4, size: 0x8, addend: 0x0, symName: __ZNSt3__14pairIPmS1_EC1B7v160006IRS1_S1_LPv0EEEOT_OT0_, symObjAddr: 0x3730, symBinAddr: 0x100005504, symSize: 0x3C }
  - { offsetInCU: 0x1BB32, offset: 0x1BB32, size: 0x8, addend: 0x0, symName: __ZNSt3__14pairIPmS1_EC2B7v160006IRS1_S1_LPv0EEEOT_OT0_, symObjAddr: 0x376C, symBinAddr: 0x100005540, symSize: 0x34 }
  - { offsetInCU: 0x1BB90, offset: 0x1BB90, size: 0x8, addend: 0x0, symName: __ZNSt3__118__unwrap_iter_implIPmLb1EE8__unwrapB7v160006ES1_, symObjAddr: 0x37A0, symBinAddr: 0x100005574, symSize: 0x24 }
  - { offsetInCU: 0x1BBB3, offset: 0x1BBB3, size: 0x8, addend: 0x0, symName: __ZNSt3__14pairIPmS1_EC1B7v160006IS1_S1_LPv0EEEOT_OT0_, symObjAddr: 0x37C4, symBinAddr: 0x100005598, symSize: 0x3C }
  - { offsetInCU: 0x1BC11, offset: 0x1BC11, size: 0x8, addend: 0x0, symName: __ZNSt3__14pairIPmS1_EC2B7v160006IS1_S1_LPv0EEEOT_OT0_, symObjAddr: 0x3800, symBinAddr: 0x1000055D4, symSize: 0x34 }
  - { offsetInCU: 0x1BC6F, offset: 0x1BC6F, size: 0x8, addend: 0x0, symName: __ZNSt3__118__unwrap_iter_implIPmLb1EE8__rewrapB7v160006ES1_S1_, symObjAddr: 0x3834, symBinAddr: 0x100005608, symSize: 0x50 }
  - { offsetInCU: 0x1BCAA, offset: 0x1BCAA, size: 0x8, addend: 0x0, symName: __ZNKSt3__16__lessImmEclB7v160006ERKmS3_, symObjAddr: 0x3904, symBinAddr: 0x1000056D8, symSize: 0x34 }
  - { offsetInCU: 0x1BCEC, offset: 0x1BCEC, size: 0x8, addend: 0x0, symName: __ZNSt3__16vectorIbNS_9allocatorIbEEE10__align_itB7v160006Em, symObjAddr: 0x3964, symBinAddr: 0x100005738, symSize: 0x1C }
  - { offsetInCU: 0x1BD29, offset: 0x1BD29, size: 0x8, addend: 0x0, symName: __ZNKSt3__114__copy_trivialclB7v160006IKmmLi0EEENS_4pairIPT_PT0_EES5_S5_S7_, symObjAddr: 0x43D8, symBinAddr: 0x1000061AC, symSize: 0x48 }
  - { offsetInCU: 0x1BDAF, offset: 0x1BDAF, size: 0x8, addend: 0x0, symName: __ZNSt3__14pairIPKmS2_EC1B7v160006IS2_S2_LPv0EEEOT_OT0_, symObjAddr: 0x44E0, symBinAddr: 0x1000062B4, symSize: 0x3C }
  - { offsetInCU: 0x1BE0D, offset: 0x1BE0D, size: 0x8, addend: 0x0, symName: __ZNSt3__14pairIPKmS2_EC2B7v160006IS2_S2_LPv0EEEOT_OT0_, symObjAddr: 0x451C, symBinAddr: 0x1000062F0, symSize: 0x34 }
  - { offsetInCU: 0x1BE6B, offset: 0x1BE6B, size: 0x8, addend: 0x0, symName: __ZNSt3__118__unwrap_iter_implIPKmLb1EE8__unwrapB7v160006ES2_, symObjAddr: 0x4550, symBinAddr: 0x100006324, symSize: 0x24 }
  - { offsetInCU: 0x1BE93, offset: 0x1BE93, size: 0x8, addend: 0x0, symName: __ZNSt3__14pairIPKmPmEC1B7v160006IRS2_S3_LPv0EEEOT_OT0_, symObjAddr: 0x4630, symBinAddr: 0x100006404, symSize: 0x3C }
  - { offsetInCU: 0x1BEF1, offset: 0x1BEF1, size: 0x8, addend: 0x0, symName: __ZNSt3__14pairIPKmPmEC2B7v160006IRS2_S3_LPv0EEEOT_OT0_, symObjAddr: 0x466C, symBinAddr: 0x100006440, symSize: 0x34 }
  - { offsetInCU: 0x1BF4F, offset: 0x1BF4F, size: 0x8, addend: 0x0, symName: __ZNSt3__14pairIPKmPmEC1B7v160006IS2_S3_LPv0EEEOT_OT0_, symObjAddr: 0x46A0, symBinAddr: 0x100006474, symSize: 0x3C }
  - { offsetInCU: 0x1BFAD, offset: 0x1BFAD, size: 0x8, addend: 0x0, symName: __ZNSt3__14pairIPKmPmEC2B7v160006IS2_S3_LPv0EEEOT_OT0_, symObjAddr: 0x46DC, symBinAddr: 0x1000064B0, symSize: 0x34 }
  - { offsetInCU: 0x1C00B, offset: 0x1C00B, size: 0x8, addend: 0x0, symName: __ZNSt3__118__unwrap_iter_implIPKmLb1EE8__rewrapB7v160006ES2_S2_, symObjAddr: 0x474C, symBinAddr: 0x100006520, symSize: 0x50 }
  - { offsetInCU: 0x1C03C, offset: 0x1C03C, size: 0x8, addend: 0x0, symName: __ZNKSt3__16vectorIbNS_9allocatorIbEEE11__make_iterB7v160006Em, symObjAddr: 0x479C, symBinAddr: 0x100006570, symSize: 0x5C }
  - { offsetInCU: 0x1C071, offset: 0x1C071, size: 0x8, addend: 0x0, symName: __ZNSt3__114__bit_iteratorINS_6vectorIbNS_9allocatorIbEEEELb1ELm0EEC1B7v160006EPKmj, symObjAddr: 0x47F8, symBinAddr: 0x1000065CC, symSize: 0x3C }
  - { offsetInCU: 0x1C0B9, offset: 0x1C0B9, size: 0x8, addend: 0x0, symName: __ZNSt3__114__bit_iteratorINS_6vectorIbNS_9allocatorIbEEEELb1ELm0EEC2B7v160006EPKmj, symObjAddr: 0x4834, symBinAddr: 0x100006608, symSize: 0x2C }
  - { offsetInCU: 0x1C101, offset: 0x1C101, size: 0x8, addend: 0x0, symName: __ZNSt3__114__bit_iteratorINS_6vectorIbNS_9allocatorIbEEEELb0ELm0EEC2B7v160006ERKS5_, symObjAddr: 0x4D0C, symBinAddr: 0x100006AE0, symSize: 0x30 }
  - { offsetInCU: 0x1C13A, offset: 0x1C13A, size: 0x8, addend: 0x0, symName: __ZNSt3__16vectorIbNS_9allocatorIbEEED2B7v160006Ev, symObjAddr: 0x4D3C, symBinAddr: 0x100006B10, symSize: 0x44 }
  - { offsetInCU: 0x1C164, offset: 0x1C164, size: 0x8, addend: 0x0, symName: __ZNSt3__16vectorIbNS_9allocatorIbEEE16__destroy_vectorC1ERS3_, symObjAddr: 0x4D80, symBinAddr: 0x100006B54, symSize: 0x34 }
  - { offsetInCU: 0x1C19D, offset: 0x1C19D, size: 0x8, addend: 0x0, symName: __ZNSt3__16vectorIbNS_9allocatorIbEEE16__destroy_vectorclB7v160006Ev, symObjAddr: 0x4DB4, symBinAddr: 0x100006B88, symSize: 0x84 }
  - { offsetInCU: 0x1C1C3, offset: 0x1C1C3, size: 0x8, addend: 0x0, symName: __ZNSt3__16vectorIbNS_9allocatorIbEEE16__destroy_vectorC2ERS3_, symObjAddr: 0x4E38, symBinAddr: 0x100006C0C, symSize: 0x20 }
  - { offsetInCU: 0x1C1FC, offset: 0x1C1FC, size: 0x8, addend: 0x0, symName: __ZNSt3__116allocator_traitsINS_9allocatorImEEE10deallocateB7v160006ERS2_Pmm, symObjAddr: 0x4E58, symBinAddr: 0x100006C2C, symSize: 0x34 }
  - { offsetInCU: 0x1C23E, offset: 0x1C23E, size: 0x8, addend: 0x0, symName: __ZNSt3__19allocatorImE10deallocateB7v160006EPmm, symObjAddr: 0x4E9C, symBinAddr: 0x100006C70, symSize: 0x40 }
  - { offsetInCU: 0x1C280, offset: 0x1C280, size: 0x8, addend: 0x0, symName: __ZN16ReaderWriterLockC2Ev, symObjAddr: 0x4F58, symBinAddr: 0x100006D2C, symSize: 0x4C }
  - { offsetInCU: 0x1C2AA, offset: 0x1C2AA, size: 0x8, addend: 0x0, symName: __ZN11BloomfilterD2Ev, symObjAddr: 0x4FA4, symBinAddr: 0x100006D78, symSize: 0x30 }
  - { offsetInCU: 0x1C2D6, offset: 0x1C2D6, size: 0x8, addend: 0x0, symName: __ZN8UrlQueueD2Ev, symObjAddr: 0x4FD4, symBinAddr: 0x100006DA8, symSize: 0x38 }
  - { offsetInCU: 0x1C302, offset: 0x1C302, size: 0x8, addend: 0x0, symName: __ZNSt3__15queueI6stringNS_5dequeIS1_NS_9allocatorIS1_EEEEED1Ev, symObjAddr: 0x500C, symBinAddr: 0x100006DE0, symSize: 0x2C }
  - { offsetInCU: 0x1C32F, offset: 0x1C32F, size: 0x8, addend: 0x0, symName: __ZN6vectorI6stringED1Ev, symObjAddr: 0x5038, symBinAddr: 0x100006E0C, symSize: 0x2C }
  - { offsetInCU: 0x1C359, offset: 0x1C359, size: 0x8, addend: 0x0, symName: __ZNSt3__15queueI6stringNS_5dequeIS1_NS_9allocatorIS1_EEEEED2Ev, symObjAddr: 0x5064, symBinAddr: 0x100006E38, symSize: 0x2C }
  - { offsetInCU: 0x1C386, offset: 0x1C386, size: 0x8, addend: 0x0, symName: __ZNSt3__15dequeI6stringNS_9allocatorIS1_EEED1B7v160006Ev, symObjAddr: 0x5090, symBinAddr: 0x100006E64, symSize: 0x2C }
  - { offsetInCU: 0x1C3B0, offset: 0x1C3B0, size: 0x8, addend: 0x0, symName: __ZNSt3__15dequeI6stringNS_9allocatorIS1_EEED2B7v160006Ev, symObjAddr: 0x50BC, symBinAddr: 0x100006E90, symSize: 0x9C }
  - { offsetInCU: 0x1C406, offset: 0x1C406, size: 0x8, addend: 0x0, symName: __ZNSt3__15dequeI6stringNS_9allocatorIS1_EEE5clearEv, symObjAddr: 0x5158, symBinAddr: 0x100006F2C, symSize: 0x180 }
  - { offsetInCU: 0x1C462, offset: 0x1C462, size: 0x8, addend: 0x0, symName: __ZNSt3__114__split_bufferIP6stringNS_9allocatorIS2_EEE5beginB7v160006Ev, symObjAddr: 0x52D8, symBinAddr: 0x1000070AC, symSize: 0x18 }
  - { offsetInCU: 0x1C488, offset: 0x1C488, size: 0x8, addend: 0x0, symName: __ZNSt3__114__split_bufferIP6stringNS_9allocatorIS2_EEE3endB7v160006Ev, symObjAddr: 0x52F0, symBinAddr: 0x1000070C4, symSize: 0x18 }
  - { offsetInCU: 0x1C4AE, offset: 0x1C4AE, size: 0x8, addend: 0x0, symName: __ZNSt3__116allocator_traitsINS_9allocatorI6stringEEE10deallocateB7v160006ERS3_PS2_m, symObjAddr: 0x5308, symBinAddr: 0x1000070DC, symSize: 0x34 }
  - { offsetInCU: 0x1C4F0, offset: 0x1C4F0, size: 0x8, addend: 0x0, symName: __ZNSt3__15dequeI6stringNS_9allocatorIS1_EEE7__allocB7v160006Ev, symObjAddr: 0x533C, symBinAddr: 0x100007110, symSize: 0x28 }
  - { offsetInCU: 0x1C516, offset: 0x1C516, size: 0x8, addend: 0x0, symName: __ZNSt3__114__split_bufferIP6stringNS_9allocatorIS2_EEED1Ev, symObjAddr: 0x5364, symBinAddr: 0x100007138, symSize: 0x2C }
  - { offsetInCU: 0x1C542, offset: 0x1C542, size: 0x8, addend: 0x0, symName: __ZNSt3__15dequeI6stringNS_9allocatorIS1_EEE5beginB7v160006Ev, symObjAddr: 0x5390, symBinAddr: 0x100007164, symSize: 0xC0 }
  - { offsetInCU: 0x1C577, offset: 0x1C577, size: 0x8, addend: 0x0, symName: __ZNSt3__15dequeI6stringNS_9allocatorIS1_EEE3endB7v160006Ev, symObjAddr: 0x5450, symBinAddr: 0x100007224, symSize: 0xC4 }
  - { offsetInCU: 0x1C5BB, offset: 0x1C5BB, size: 0x8, addend: 0x0, symName: __ZNSt3__116allocator_traitsINS_9allocatorI6stringEEE7destroyB7v160006IS2_vEEvRS3_PT_, symObjAddr: 0x5548, symBinAddr: 0x10000731C, symSize: 0x2C }
  - { offsetInCU: 0x1C5F8, offset: 0x1C5F8, size: 0x8, addend: 0x0, symName: __ZNKSt3__116__deque_iteratorI6stringPS1_RS1_PS2_lLl170EEdeB7v160006Ev, symObjAddr: 0x5574, symBinAddr: 0x100007348, symSize: 0x18 }
  - { offsetInCU: 0x1C61E, offset: 0x1C61E, size: 0x8, addend: 0x0, symName: __ZNSt3__116__deque_iteratorI6stringPS1_RS1_PS2_lLl170EEppB7v160006Ev, symObjAddr: 0x558C, symBinAddr: 0x100007360, symSize: 0x70 }
  - { offsetInCU: 0x1C644, offset: 0x1C644, size: 0x8, addend: 0x0, symName: __ZNSt3__15dequeI6stringNS_9allocatorIS1_EEE6__sizeB7v160006Ev, symObjAddr: 0x55FC, symBinAddr: 0x1000073D0, symSize: 0x28 }
  - { offsetInCU: 0x1C66A, offset: 0x1C66A, size: 0x8, addend: 0x0, symName: __ZNKSt3__114__split_bufferIP6stringNS_9allocatorIS2_EEE4sizeB7v160006Ev, symObjAddr: 0x5624, symBinAddr: 0x1000073F8, symSize: 0x28 }
  - { offsetInCU: 0x1C690, offset: 0x1C690, size: 0x8, addend: 0x0, symName: __ZNSt3__114__split_bufferIP6stringNS_9allocatorIS2_EEE5frontB7v160006Ev, symObjAddr: 0x564C, symBinAddr: 0x100007420, symSize: 0x18 }
  - { offsetInCU: 0x1C6B6, offset: 0x1C6B6, size: 0x8, addend: 0x0, symName: __ZNSt3__114__split_bufferIP6stringNS_9allocatorIS2_EEE9pop_frontB7v160006Ev, symObjAddr: 0x5664, symBinAddr: 0x100007438, symSize: 0x2C }
  - { offsetInCU: 0x1C6DC, offset: 0x1C6DC, size: 0x8, addend: 0x0, symName: __ZNKSt3__114__split_bufferIP6stringNS_9allocatorIS2_EEE5emptyB7v160006Ev, symObjAddr: 0x5690, symBinAddr: 0x100007464, symSize: 0x28 }
  - { offsetInCU: 0x1C702, offset: 0x1C702, size: 0x8, addend: 0x0, symName: __ZNSt3__116__deque_iteratorI6stringPS1_RS1_PS2_lLl170EEC1B7v160006ES4_S2_, symObjAddr: 0x56B8, symBinAddr: 0x10000748C, symSize: 0x3C }
  - { offsetInCU: 0x1C74A, offset: 0x1C74A, size: 0x8, addend: 0x0, symName: __ZNSt3__116__deque_iteratorI6stringPS1_RS1_PS2_lLl170EEC2B7v160006ES4_S2_, symObjAddr: 0x56F4, symBinAddr: 0x1000074C8, symSize: 0x2C }
  - { offsetInCU: 0x1C792, offset: 0x1C792, size: 0x8, addend: 0x0, symName: __ZNKSt3__15dequeI6stringNS_9allocatorIS1_EEE4sizeB7v160006Ev, symObjAddr: 0x5720, symBinAddr: 0x1000074F4, symSize: 0x28 }
  - { offsetInCU: 0x1C7B8, offset: 0x1C7B8, size: 0x8, addend: 0x0, symName: __ZNKSt3__15dequeI6stringNS_9allocatorIS1_EEE6__sizeB7v160006Ev, symObjAddr: 0x5748, symBinAddr: 0x10000751C, symSize: 0x28 }
  - { offsetInCU: 0x1C7DE, offset: 0x1C7DE, size: 0x8, addend: 0x0, symName: __ZNKSt3__117__compressed_pairImNS_9allocatorI6stringEEE5firstB7v160006Ev, symObjAddr: 0x5770, symBinAddr: 0x100007544, symSize: 0x24 }
  - { offsetInCU: 0x1C804, offset: 0x1C804, size: 0x8, addend: 0x0, symName: __ZNSt3__19allocatorI6stringE7destroyB7v160006EPS1_, symObjAddr: 0x57C4, symBinAddr: 0x100007598, symSize: 0x28 }
  - { offsetInCU: 0x1C838, offset: 0x1C838, size: 0x8, addend: 0x0, symName: __ZNSt3__117__compressed_pairImNS_9allocatorI6stringEEE5firstB7v160006Ev, symObjAddr: 0x57EC, symBinAddr: 0x1000075C0, symSize: 0x24 }
  - { offsetInCU: 0x1C85E, offset: 0x1C85E, size: 0x8, addend: 0x0, symName: __ZNSt3__114__split_bufferIP6stringNS_9allocatorIS2_EEE19__destruct_at_beginB7v160006EPS2_, symObjAddr: 0x5810, symBinAddr: 0x1000075E4, symSize: 0x2C }
  - { offsetInCU: 0x1C892, offset: 0x1C892, size: 0x8, addend: 0x0, symName: __ZNSt3__114__split_bufferIP6stringNS_9allocatorIS2_EEE19__destruct_at_beginEPS2_NS_17integral_constantIbLb1EEE, symObjAddr: 0x583C, symBinAddr: 0x100007610, symSize: 0x20 }
  - { offsetInCU: 0x1C8D2, offset: 0x1C8D2, size: 0x8, addend: 0x0, symName: __ZNSt3__19allocatorI6stringE10deallocateB7v160006EPS1_m, symObjAddr: 0x585C, symBinAddr: 0x100007630, symSize: 0x44 }
  - { offsetInCU: 0x1C914, offset: 0x1C914, size: 0x8, addend: 0x0, symName: __ZNSt3__117__compressed_pairImNS_9allocatorI6stringEEE6secondB7v160006Ev, symObjAddr: 0x58A0, symBinAddr: 0x100007674, symSize: 0x24 }
  - { offsetInCU: 0x1C93A, offset: 0x1C93A, size: 0x8, addend: 0x0, symName: __ZNSt3__122__compressed_pair_elemINS_9allocatorI6stringEELi1ELb1EE5__getB7v160006Ev, symObjAddr: 0x58C4, symBinAddr: 0x100007698, symSize: 0x14 }
  - { offsetInCU: 0x1C960, offset: 0x1C960, size: 0x8, addend: 0x0, symName: __ZNSt3__114__split_bufferIP6stringNS_9allocatorIS2_EEED2Ev, symObjAddr: 0x58D8, symBinAddr: 0x1000076AC, symSize: 0x8C }
  - { offsetInCU: 0x1C98C, offset: 0x1C98C, size: 0x8, addend: 0x0, symName: __ZNSt3__114__split_bufferIP6stringNS_9allocatorIS2_EEE5clearB7v160006Ev, symObjAddr: 0x5964, symBinAddr: 0x100007738, symSize: 0x28 }
  - { offsetInCU: 0x1C9B2, offset: 0x1C9B2, size: 0x8, addend: 0x0, symName: __ZNSt3__116allocator_traitsINS_9allocatorIP6stringEEE10deallocateB7v160006ERS4_PS3_m, symObjAddr: 0x598C, symBinAddr: 0x100007760, symSize: 0x34 }
  - { offsetInCU: 0x1C9F4, offset: 0x1C9F4, size: 0x8, addend: 0x0, symName: __ZNSt3__114__split_bufferIP6stringNS_9allocatorIS2_EEE7__allocB7v160006Ev, symObjAddr: 0x59C0, symBinAddr: 0x100007794, symSize: 0x28 }
  - { offsetInCU: 0x1CA1A, offset: 0x1CA1A, size: 0x8, addend: 0x0, symName: __ZNKSt3__114__split_bufferIP6stringNS_9allocatorIS2_EEE8capacityB7v160006Ev, symObjAddr: 0x59E8, symBinAddr: 0x1000077BC, symSize: 0x40 }
  - { offsetInCU: 0x1CA40, offset: 0x1CA40, size: 0x8, addend: 0x0, symName: __ZNSt3__114__split_bufferIP6stringNS_9allocatorIS2_EEE17__destruct_at_endB7v160006EPS2_, symObjAddr: 0x5A28, symBinAddr: 0x1000077FC, symSize: 0x2C }
  - { offsetInCU: 0x1CA74, offset: 0x1CA74, size: 0x8, addend: 0x0, symName: __ZNSt3__114__split_bufferIP6stringNS_9allocatorIS2_EEE17__destruct_at_endB7v160006EPS2_NS_17integral_constantIbLb0EEE, symObjAddr: 0x5A54, symBinAddr: 0x100007828, symSize: 0x80 }
  - { offsetInCU: 0x1CAB4, offset: 0x1CAB4, size: 0x8, addend: 0x0, symName: __ZNSt3__116allocator_traitsINS_9allocatorIP6stringEEE7destroyB7v160006IS3_vEEvRS4_PT_, symObjAddr: 0x5AD4, symBinAddr: 0x1000078A8, symSize: 0x2C }
  - { offsetInCU: 0x1CAF1, offset: 0x1CAF1, size: 0x8, addend: 0x0, symName: __ZNSt3__19allocatorIP6stringE7destroyB7v160006EPS2_, symObjAddr: 0x5B14, symBinAddr: 0x1000078E8, symSize: 0x14 }
  - { offsetInCU: 0x1CB25, offset: 0x1CB25, size: 0x8, addend: 0x0, symName: __ZNSt3__19allocatorIP6stringE10deallocateB7v160006EPS2_m, symObjAddr: 0x5B28, symBinAddr: 0x1000078FC, symSize: 0x40 }
  - { offsetInCU: 0x1CB67, offset: 0x1CB67, size: 0x8, addend: 0x0, symName: __ZNSt3__117__compressed_pairIPP6stringNS_9allocatorIS2_EEE6secondB7v160006Ev, symObjAddr: 0x5B68, symBinAddr: 0x10000793C, symSize: 0x24 }
  - { offsetInCU: 0x1CB8D, offset: 0x1CB8D, size: 0x8, addend: 0x0, symName: __ZNSt3__122__compressed_pair_elemINS_9allocatorIP6stringEELi1ELb1EE5__getB7v160006Ev, symObjAddr: 0x5B8C, symBinAddr: 0x100007960, symSize: 0x14 }
  - { offsetInCU: 0x1CBB3, offset: 0x1CBB3, size: 0x8, addend: 0x0, symName: __ZNKSt3__114__split_bufferIP6stringNS_9allocatorIS2_EEE9__end_capB7v160006Ev, symObjAddr: 0x5BA0, symBinAddr: 0x100007974, symSize: 0x28 }
  - { offsetInCU: 0x1CBD9, offset: 0x1CBD9, size: 0x8, addend: 0x0, symName: __ZNKSt3__117__compressed_pairIPP6stringNS_9allocatorIS2_EEE5firstB7v160006Ev, symObjAddr: 0x5BC8, symBinAddr: 0x10000799C, symSize: 0x24 }
  - { offsetInCU: 0x1CBFF, offset: 0x1CBFF, size: 0x8, addend: 0x0, symName: __ZNKSt3__122__compressed_pair_elemIPP6stringLi0ELb0EE5__getB7v160006Ev, symObjAddr: 0x5BEC, symBinAddr: 0x1000079C0, symSize: 0x14 }
  - { offsetInCU: 0x1CC25, offset: 0x1CC25, size: 0x8, addend: 0x0, symName: __ZN6vectorI6stringED2Ev, symObjAddr: 0x5C00, symBinAddr: 0x1000079D4, symSize: 0xB0 }
  - { offsetInCU: 0x1CC4F, offset: 0x1CC4F, size: 0x8, addend: 0x0, symName: __ZN18ThreadSafeFrontierD2Ev, symObjAddr: 0x5CB0, symBinAddr: 0x100007A84, symSize: 0x44 }
  - { offsetInCU: 0x1CC79, offset: 0x1CC79, size: 0x8, addend: 0x0, symName: __ZN16ReaderWriterLockD1Ev, symObjAddr: 0x5CF4, symBinAddr: 0x100007AC8, symSize: 0x2C }
  - { offsetInCU: 0x1CCA3, offset: 0x1CCA3, size: 0x8, addend: 0x0, symName: __ZN16ReaderWriterLockD2Ev, symObjAddr: 0x5D20, symBinAddr: 0x100007AF4, symSize: 0x48 }
  - { offsetInCU: 0x1CCCD, offset: 0x1CCCD, size: 0x8, addend: 0x0, symName: __ZN17IndexWriteHandlerC2EPKc, symObjAddr: 0x5D68, symBinAddr: 0x100007B3C, symSize: 0x4C }
  - { offsetInCU: 0x1CD06, offset: 0x1CD06, size: 0x8, addend: 0x0, symName: __ZN17IndexWriteHandlerD0Ev, symObjAddr: 0x5DB4, symBinAddr: 0x100007B88, symSize: 0x30 }
  - { offsetInCU: 0x1CD30, offset: 0x1CD30, size: 0x8, addend: 0x0, symName: __ZN17IndexWriteHandlerD2Ev, symObjAddr: 0x5DE4, symBinAddr: 0x100007BB8, symSize: 0x10C }
  - { offsetInCU: 0x1CD5A, offset: 0x1CD5A, size: 0x8, addend: 0x0, symName: __ZN12IndexHandlerD2Ev, symObjAddr: 0x5EF0, symBinAddr: 0x100007CC4, symSize: 0x58 }
  - { offsetInCU: 0x1CD84, offset: 0x1CD84, size: 0x8, addend: 0x0, symName: __ZN12IndexHandlerD1Ev, symObjAddr: 0x5F48, symBinAddr: 0x100007D1C, symSize: 0x2C }
  - { offsetInCU: 0x1CDAE, offset: 0x1CDAE, size: 0x8, addend: 0x0, symName: __ZN12IndexHandlerD0Ev, symObjAddr: 0x5F74, symBinAddr: 0x100007D48, symSize: 0x30 }
  - { offsetInCU: 0x1CDD8, offset: 0x1CDD8, size: 0x8, addend: 0x0, symName: __ZN10ThreadPoolC2Em, symObjAddr: 0x5FA4, symBinAddr: 0x100007D78, symSize: 0x120 }
  - { offsetInCU: 0x1CE41, offset: 0x1CE41, size: 0x8, addend: 0x0, symName: __ZNSt3__16vectorIP17_opaque_pthread_tNS_9allocatorIS2_EEEC1B7v160006Ev, symObjAddr: 0x60C4, symBinAddr: 0x100007E98, symSize: 0x2C }
  - { offsetInCU: 0x1CE6B, offset: 0x1CE6B, size: 0x8, addend: 0x0, symName: __ZNSt3__15queueI4TaskNS_5dequeIS1_NS_9allocatorIS1_EEEEEC1B7v160006Ev, symObjAddr: 0x60F0, symBinAddr: 0x100007EC4, symSize: 0x2C }
  - { offsetInCU: 0x1CE95, offset: 0x1CE95, size: 0x8, addend: 0x0, symName: __ZN10ThreadPool12workerThreadEPv, symObjAddr: 0x611C, symBinAddr: 0x100007EF0, symSize: 0x100 }
  - { offsetInCU: 0x1CEE2, offset: 0x1CEE2, size: 0x8, addend: 0x0, symName: __ZNSt3__16vectorIP17_opaque_pthread_tNS_9allocatorIS2_EEE9push_backB7v160006ERKS2_, symObjAddr: 0x621C, symBinAddr: 0x100007FF0, symSize: 0x6C }
  - { offsetInCU: 0x1CF19, offset: 0x1CF19, size: 0x8, addend: 0x0, symName: __ZNSt3__15queueI4TaskNS_5dequeIS1_NS_9allocatorIS1_EEEEED1Ev, symObjAddr: 0x6288, symBinAddr: 0x10000805C, symSize: 0x2C }
  - { offsetInCU: 0x1CF46, offset: 0x1CF46, size: 0x8, addend: 0x0, symName: __ZNSt3__16vectorIP17_opaque_pthread_tNS_9allocatorIS2_EEED1B7v160006Ev, symObjAddr: 0x62B4, symBinAddr: 0x100008088, symSize: 0x2C }
  - { offsetInCU: 0x1CF70, offset: 0x1CF70, size: 0x8, addend: 0x0, symName: __ZNSt3__16vectorIP17_opaque_pthread_tNS_9allocatorIS2_EEEC2B7v160006Ev, symObjAddr: 0x62E0, symBinAddr: 0x1000080B4, symSize: 0x58 }
  - { offsetInCU: 0x1CF9A, offset: 0x1CF9A, size: 0x8, addend: 0x0, symName: __ZNSt3__117__compressed_pairIPP17_opaque_pthread_tNS_9allocatorIS2_EEEC1B7v160006IDnNS_18__default_init_tagEEEOT_OT0_, symObjAddr: 0x6338, symBinAddr: 0x10000810C, symSize: 0x3C }
  - { offsetInCU: 0x1CFF2, offset: 0x1CFF2, size: 0x8, addend: 0x0, symName: __ZNSt3__117__compressed_pairIPP17_opaque_pthread_tNS_9allocatorIS2_EEEC2B7v160006IDnNS_18__default_init_tagEEEOT_OT0_, symObjAddr: 0x6384, symBinAddr: 0x100008158, symSize: 0x40 }
  - { offsetInCU: 0x1D04A, offset: 0x1D04A, size: 0x8, addend: 0x0, symName: __ZNSt3__122__compressed_pair_elemIPP17_opaque_pthread_tLi0ELb0EEC2B7v160006IDnvEEOT_, symObjAddr: 0x63C4, symBinAddr: 0x100008198, symSize: 0x1C }
  - { offsetInCU: 0x1D08C, offset: 0x1D08C, size: 0x8, addend: 0x0, symName: __ZNSt3__122__compressed_pair_elemINS_9allocatorIP17_opaque_pthread_tEELi1ELb1EEC2B7v160006ENS_18__default_init_tagE, symObjAddr: 0x63E0, symBinAddr: 0x1000081B4, symSize: 0x2C }
  - { offsetInCU: 0x1D0C0, offset: 0x1D0C0, size: 0x8, addend: 0x0, symName: __ZNSt3__19allocatorIP17_opaque_pthread_tEC2B7v160006Ev, symObjAddr: 0x640C, symBinAddr: 0x1000081E0, symSize: 0x2C }
  - { offsetInCU: 0x1D0EA, offset: 0x1D0EA, size: 0x8, addend: 0x0, symName: __ZNSt3__116__non_trivial_ifILb1ENS_9allocatorIP17_opaque_pthread_tEEEC2B7v160006Ev, symObjAddr: 0x6438, symBinAddr: 0x10000820C, symSize: 0x14 }
  - { offsetInCU: 0x1D114, offset: 0x1D114, size: 0x8, addend: 0x0, symName: __ZNSt3__15queueI4TaskNS_5dequeIS1_NS_9allocatorIS1_EEEEEC2B7v160006Ev, symObjAddr: 0x644C, symBinAddr: 0x100008220, symSize: 0x2C }
  - { offsetInCU: 0x1D13E, offset: 0x1D13E, size: 0x8, addend: 0x0, symName: __ZNSt3__15dequeI4TaskNS_9allocatorIS1_EEEC1B7v160006Ev, symObjAddr: 0x6478, symBinAddr: 0x10000824C, symSize: 0x2C }
  - { offsetInCU: 0x1D168, offset: 0x1D168, size: 0x8, addend: 0x0, symName: __ZNSt3__15dequeI4TaskNS_9allocatorIS1_EEEC2B7v160006Ev, symObjAddr: 0x64A4, symBinAddr: 0x100008278, symSize: 0x50 }
  - { offsetInCU: 0x1D192, offset: 0x1D192, size: 0x8, addend: 0x0, symName: __ZNSt3__114__split_bufferIP4TaskNS_9allocatorIS2_EEEC1Ev, symObjAddr: 0x64F4, symBinAddr: 0x1000082C8, symSize: 0x2C }
  - { offsetInCU: 0x1D1BE, offset: 0x1D1BE, size: 0x8, addend: 0x0, symName: __ZNSt3__117__compressed_pairImNS_9allocatorI4TaskEEEC1B7v160006IiNS_18__default_init_tagEEEOT_OT0_, symObjAddr: 0x6520, symBinAddr: 0x1000082F4, symSize: 0x3C }
  - { offsetInCU: 0x1D216, offset: 0x1D216, size: 0x8, addend: 0x0, symName: __ZNSt3__114__split_bufferIP4TaskNS_9allocatorIS2_EEEC2Ev, symObjAddr: 0x655C, symBinAddr: 0x100008330, symSize: 0x50 }
  - { offsetInCU: 0x1D242, offset: 0x1D242, size: 0x8, addend: 0x0, symName: __ZNSt3__117__compressed_pairIPP4TaskNS_9allocatorIS2_EEEC1B7v160006IDnNS_18__default_init_tagEEEOT_OT0_, symObjAddr: 0x65AC, symBinAddr: 0x100008380, symSize: 0x3C }
  - { offsetInCU: 0x1D29A, offset: 0x1D29A, size: 0x8, addend: 0x0, symName: __ZNSt3__117__compressed_pairIPP4TaskNS_9allocatorIS2_EEEC2B7v160006IDnNS_18__default_init_tagEEEOT_OT0_, symObjAddr: 0x65E8, symBinAddr: 0x1000083BC, symSize: 0x40 }
  - { offsetInCU: 0x1D2F2, offset: 0x1D2F2, size: 0x8, addend: 0x0, symName: __ZNSt3__122__compressed_pair_elemIPP4TaskLi0ELb0EEC2B7v160006IDnvEEOT_, symObjAddr: 0x6628, symBinAddr: 0x1000083FC, symSize: 0x1C }
  - { offsetInCU: 0x1D334, offset: 0x1D334, size: 0x8, addend: 0x0, symName: __ZNSt3__122__compressed_pair_elemINS_9allocatorIP4TaskEELi1ELb1EEC2B7v160006ENS_18__default_init_tagE, symObjAddr: 0x6644, symBinAddr: 0x100008418, symSize: 0x2C }
  - { offsetInCU: 0x1D368, offset: 0x1D368, size: 0x8, addend: 0x0, symName: __ZNSt3__19allocatorIP4TaskEC2B7v160006Ev, symObjAddr: 0x6670, symBinAddr: 0x100008444, symSize: 0x2C }
  - { offsetInCU: 0x1D392, offset: 0x1D392, size: 0x8, addend: 0x0, symName: __ZNSt3__116__non_trivial_ifILb1ENS_9allocatorIP4TaskEEEC2B7v160006Ev, symObjAddr: 0x669C, symBinAddr: 0x100008470, symSize: 0x14 }
  - { offsetInCU: 0x1D3BC, offset: 0x1D3BC, size: 0x8, addend: 0x0, symName: __ZNSt3__117__compressed_pairImNS_9allocatorI4TaskEEEC2B7v160006IiNS_18__default_init_tagEEEOT_OT0_, symObjAddr: 0x66B0, symBinAddr: 0x100008484, symSize: 0x40 }
  - { offsetInCU: 0x1D414, offset: 0x1D414, size: 0x8, addend: 0x0, symName: __ZNSt3__122__compressed_pair_elemINS_9allocatorI4TaskEELi1ELb1EEC2B7v160006ENS_18__default_init_tagE, symObjAddr: 0x66F0, symBinAddr: 0x1000084C4, symSize: 0x2C }
  - { offsetInCU: 0x1D448, offset: 0x1D448, size: 0x8, addend: 0x0, symName: __ZNSt3__19allocatorI4TaskEC2B7v160006Ev, symObjAddr: 0x671C, symBinAddr: 0x1000084F0, symSize: 0x2C }
  - { offsetInCU: 0x1D472, offset: 0x1D472, size: 0x8, addend: 0x0, symName: __ZNSt3__116__non_trivial_ifILb1ENS_9allocatorI4TaskEEEC2B7v160006Ev, symObjAddr: 0x6748, symBinAddr: 0x10000851C, symSize: 0x14 }
  - { offsetInCU: 0x1D49C, offset: 0x1D49C, size: 0x8, addend: 0x0, symName: __ZNKSt3__15queueI4TaskNS_5dequeIS1_NS_9allocatorIS1_EEEEE5emptyB7v160006Ev, symObjAddr: 0x675C, symBinAddr: 0x100008530, symSize: 0x28 }
  - { offsetInCU: 0x1D4C2, offset: 0x1D4C2, size: 0x8, addend: 0x0, symName: __ZNSt3__15queueI4TaskNS_5dequeIS1_NS_9allocatorIS1_EEEEE5frontB7v160006Ev, symObjAddr: 0x6784, symBinAddr: 0x100008558, symSize: 0x24 }
  - { offsetInCU: 0x1D4E8, offset: 0x1D4E8, size: 0x8, addend: 0x0, symName: __ZNSt3__15queueI4TaskNS_5dequeIS1_NS_9allocatorIS1_EEEEE3popB7v160006Ev, symObjAddr: 0x67A8, symBinAddr: 0x10000857C, symSize: 0x24 }
  - { offsetInCU: 0x1D50E, offset: 0x1D50E, size: 0x8, addend: 0x0, symName: __ZNKSt3__15dequeI4TaskNS_9allocatorIS1_EEE5emptyB7v160006Ev, symObjAddr: 0x67CC, symBinAddr: 0x1000085A0, symSize: 0x30 }
  - { offsetInCU: 0x1D534, offset: 0x1D534, size: 0x8, addend: 0x0, symName: __ZNKSt3__15dequeI4TaskNS_9allocatorIS1_EEE4sizeB7v160006Ev, symObjAddr: 0x67FC, symBinAddr: 0x1000085D0, symSize: 0x28 }
  - { offsetInCU: 0x1D55A, offset: 0x1D55A, size: 0x8, addend: 0x0, symName: __ZNKSt3__15dequeI4TaskNS_9allocatorIS1_EEE6__sizeB7v160006Ev, symObjAddr: 0x6824, symBinAddr: 0x1000085F8, symSize: 0x28 }
  - { offsetInCU: 0x1D580, offset: 0x1D580, size: 0x8, addend: 0x0, symName: __ZNKSt3__117__compressed_pairImNS_9allocatorI4TaskEEE5firstB7v160006Ev, symObjAddr: 0x684C, symBinAddr: 0x100008620, symSize: 0x24 }
  - { offsetInCU: 0x1D5A6, offset: 0x1D5A6, size: 0x8, addend: 0x0, symName: __ZNSt3__15dequeI4TaskNS_9allocatorIS1_EEE5frontEv, symObjAddr: 0x6870, symBinAddr: 0x100008644, symSize: 0x50 }
  - { offsetInCU: 0x1D5CE, offset: 0x1D5CE, size: 0x8, addend: 0x0, symName: __ZNSt3__114__split_bufferIP4TaskNS_9allocatorIS2_EEE5beginB7v160006Ev, symObjAddr: 0x68C0, symBinAddr: 0x100008694, symSize: 0x18 }
  - { offsetInCU: 0x1D5F4, offset: 0x1D5F4, size: 0x8, addend: 0x0, symName: __ZNSt3__15dequeI4TaskNS_9allocatorIS1_EEE9pop_frontEv, symObjAddr: 0x68D8, symBinAddr: 0x1000086AC, symSize: 0xAC }
  - { offsetInCU: 0x1D62B, offset: 0x1D62B, size: 0x8, addend: 0x0, symName: __ZNSt3__15dequeI4TaskNS_9allocatorIS1_EEE7__allocB7v160006Ev, symObjAddr: 0x6984, symBinAddr: 0x100008758, symSize: 0x28 }
  - { offsetInCU: 0x1D651, offset: 0x1D651, size: 0x8, addend: 0x0, symName: __ZNSt3__116allocator_traitsINS_9allocatorI4TaskEEE7destroyB7v160006IS2_vEEvRS3_PT_, symObjAddr: 0x69AC, symBinAddr: 0x100008780, symSize: 0x2C }
  - { offsetInCU: 0x1D68E, offset: 0x1D68E, size: 0x8, addend: 0x0, symName: __ZNSt3__15dequeI4TaskNS_9allocatorIS1_EEE6__sizeB7v160006Ev, symObjAddr: 0x69EC, symBinAddr: 0x1000087C0, symSize: 0x28 }
  - { offsetInCU: 0x1D6B4, offset: 0x1D6B4, size: 0x8, addend: 0x0, symName: __ZNSt3__15dequeI4TaskNS_9allocatorIS1_EEE26__maybe_remove_front_spareB7v160006Eb, symObjAddr: 0x6A14, symBinAddr: 0x1000087E8, symSize: 0xDC }
  - { offsetInCU: 0x1D6E9, offset: 0x1D6E9, size: 0x8, addend: 0x0, symName: __ZNSt3__117__compressed_pairImNS_9allocatorI4TaskEEE6secondB7v160006Ev, symObjAddr: 0x6AF0, symBinAddr: 0x1000088C4, symSize: 0x24 }
  - { offsetInCU: 0x1D70F, offset: 0x1D70F, size: 0x8, addend: 0x0, symName: __ZNSt3__122__compressed_pair_elemINS_9allocatorI4TaskEELi1ELb1EE5__getB7v160006Ev, symObjAddr: 0x6B14, symBinAddr: 0x1000088E8, symSize: 0x14 }
  - { offsetInCU: 0x1D735, offset: 0x1D735, size: 0x8, addend: 0x0, symName: __ZNSt3__19allocatorI4TaskE7destroyB7v160006EPS1_, symObjAddr: 0x6B28, symBinAddr: 0x1000088FC, symSize: 0x14 }
  - { offsetInCU: 0x1D769, offset: 0x1D769, size: 0x8, addend: 0x0, symName: __ZNSt3__117__compressed_pairImNS_9allocatorI4TaskEEE5firstB7v160006Ev, symObjAddr: 0x6B3C, symBinAddr: 0x100008910, symSize: 0x24 }
  - { offsetInCU: 0x1D78F, offset: 0x1D78F, size: 0x8, addend: 0x0, symName: __ZNKSt3__15dequeI4TaskNS_9allocatorIS1_EEE20__front_spare_blocksB7v160006Ev, symObjAddr: 0x6B60, symBinAddr: 0x100008934, symSize: 0x2C }
  - { offsetInCU: 0x1D7B5, offset: 0x1D7B5, size: 0x8, addend: 0x0, symName: __ZNSt3__116allocator_traitsINS_9allocatorI4TaskEEE10deallocateB7v160006ERS3_PS2_m, symObjAddr: 0x6B8C, symBinAddr: 0x100008960, symSize: 0x34 }
  - { offsetInCU: 0x1D7F7, offset: 0x1D7F7, size: 0x8, addend: 0x0, symName: __ZNSt3__114__split_bufferIP4TaskNS_9allocatorIS2_EEE5frontB7v160006Ev, symObjAddr: 0x6BC0, symBinAddr: 0x100008994, symSize: 0x18 }
  - { offsetInCU: 0x1D81D, offset: 0x1D81D, size: 0x8, addend: 0x0, symName: __ZNSt3__114__split_bufferIP4TaskNS_9allocatorIS2_EEE9pop_frontB7v160006Ev, symObjAddr: 0x6BD8, symBinAddr: 0x1000089AC, symSize: 0x2C }
  - { offsetInCU: 0x1D843, offset: 0x1D843, size: 0x8, addend: 0x0, symName: __ZNKSt3__15dequeI4TaskNS_9allocatorIS1_EEE13__front_spareB7v160006Ev, symObjAddr: 0x6C04, symBinAddr: 0x1000089D8, symSize: 0x18 }
  - { offsetInCU: 0x1D869, offset: 0x1D869, size: 0x8, addend: 0x0, symName: __ZNSt3__19allocatorI4TaskE10deallocateB7v160006EPS1_m, symObjAddr: 0x6C1C, symBinAddr: 0x1000089F0, symSize: 0x40 }
  - { offsetInCU: 0x1D8AB, offset: 0x1D8AB, size: 0x8, addend: 0x0, symName: __ZNSt3__114__split_bufferIP4TaskNS_9allocatorIS2_EEE19__destruct_at_beginB7v160006EPS2_, symObjAddr: 0x6C5C, symBinAddr: 0x100008A30, symSize: 0x2C }
  - { offsetInCU: 0x1D8DF, offset: 0x1D8DF, size: 0x8, addend: 0x0, symName: __ZNSt3__114__split_bufferIP4TaskNS_9allocatorIS2_EEE19__destruct_at_beginEPS2_NS_17integral_constantIbLb1EEE, symObjAddr: 0x6C88, symBinAddr: 0x100008A5C, symSize: 0x20 }
  - { offsetInCU: 0x1D91F, offset: 0x1D91F, size: 0x8, addend: 0x0, symName: __ZNSt3__16vectorIP17_opaque_pthread_tNS_9allocatorIS2_EEE9__end_capB7v160006Ev, symObjAddr: 0x6CA8, symBinAddr: 0x100008A7C, symSize: 0x28 }
  - { offsetInCU: 0x1D945, offset: 0x1D945, size: 0x8, addend: 0x0, symName: __ZNSt3__16vectorIP17_opaque_pthread_tNS_9allocatorIS2_EEE22__construct_one_at_endB7v160006IJRKS2_EEEvDpOT_, symObjAddr: 0x6CD0, symBinAddr: 0x100008AA4, symSize: 0x90 }
  - { offsetInCU: 0x1D994, offset: 0x1D994, size: 0x8, addend: 0x0, symName: __ZNSt3__16vectorIP17_opaque_pthread_tNS_9allocatorIS2_EEE21__push_back_slow_pathIRKS2_EEvOT_, symObjAddr: 0x6D60, symBinAddr: 0x100008B34, symSize: 0xD8 }
  - { offsetInCU: 0x1D9F2, offset: 0x1D9F2, size: 0x8, addend: 0x0, symName: __ZNSt3__117__compressed_pairIPP17_opaque_pthread_tNS_9allocatorIS2_EEE5firstB7v160006Ev, symObjAddr: 0x6E38, symBinAddr: 0x100008C0C, symSize: 0x24 }
  - { offsetInCU: 0x1DA18, offset: 0x1DA18, size: 0x8, addend: 0x0, symName: __ZNSt3__122__compressed_pair_elemIPP17_opaque_pthread_tLi0ELb0EE5__getB7v160006Ev, symObjAddr: 0x6E5C, symBinAddr: 0x100008C30, symSize: 0x14 }
  - { offsetInCU: 0x1DA57, offset: 0x1DA57, size: 0x8, addend: 0x0, symName: __ZNSt3__16vectorIP17_opaque_pthread_tNS_9allocatorIS2_EEE21_ConstructTransactionC1B7v160006ERS5_m, symObjAddr: 0x6E70, symBinAddr: 0x100008C44, symSize: 0x3C }
  - { offsetInCU: 0x1DA9F, offset: 0x1DA9F, size: 0x8, addend: 0x0, symName: __ZNSt3__116allocator_traitsINS_9allocatorIP17_opaque_pthread_tEEE9constructB7v160006IS3_JRKS3_EvEEvRS4_PT_DpOT0_, symObjAddr: 0x6EAC, symBinAddr: 0x100008C80, symSize: 0x34 }
  - { offsetInCU: 0x1DAF6, offset: 0x1DAF6, size: 0x8, addend: 0x0, symName: __ZNSt3__16vectorIP17_opaque_pthread_tNS_9allocatorIS2_EEE7__allocB7v160006Ev, symObjAddr: 0x6EE0, symBinAddr: 0x100008CB4, symSize: 0x28 }
  - { offsetInCU: 0x1DB1C, offset: 0x1DB1C, size: 0x8, addend: 0x0, symName: __ZNSt3__16vectorIP17_opaque_pthread_tNS_9allocatorIS2_EEE21_ConstructTransactionD1B7v160006Ev, symObjAddr: 0x6F1C, symBinAddr: 0x100008CF0, symSize: 0x2C }
  - { offsetInCU: 0x1DB46, offset: 0x1DB46, size: 0x8, addend: 0x0, symName: __ZNSt3__16vectorIP17_opaque_pthread_tNS_9allocatorIS2_EEE21_ConstructTransactionC2B7v160006ERS5_m, symObjAddr: 0x6F48, symBinAddr: 0x100008D1C, symSize: 0x44 }
  - { offsetInCU: 0x1DB8E, offset: 0x1DB8E, size: 0x8, addend: 0x0, symName: __ZNSt3__19allocatorIP17_opaque_pthread_tE9constructB7v160006IS2_JRKS2_EEEvPT_DpOT0_, symObjAddr: 0x6F8C, symBinAddr: 0x100008D60, symSize: 0x28 }
  - { offsetInCU: 0x1DBE4, offset: 0x1DBE4, size: 0x8, addend: 0x0, symName: __ZNSt3__117__compressed_pairIPP17_opaque_pthread_tNS_9allocatorIS2_EEE6secondB7v160006Ev, symObjAddr: 0x6FB4, symBinAddr: 0x100008D88, symSize: 0x24 }
  - { offsetInCU: 0x1DC0A, offset: 0x1DC0A, size: 0x8, addend: 0x0, symName: __ZNSt3__122__compressed_pair_elemINS_9allocatorIP17_opaque_pthread_tEELi1ELb1EE5__getB7v160006Ev, symObjAddr: 0x6FD8, symBinAddr: 0x100008DAC, symSize: 0x14 }
  - { offsetInCU: 0x1DC30, offset: 0x1DC30, size: 0x8, addend: 0x0, symName: __ZNSt3__16vectorIP17_opaque_pthread_tNS_9allocatorIS2_EEE21_ConstructTransactionD2B7v160006Ev, symObjAddr: 0x6FEC, symBinAddr: 0x100008DC0, symSize: 0x20 }
  - { offsetInCU: 0x1DC5A, offset: 0x1DC5A, size: 0x8, addend: 0x0, symName: __ZNKSt3__16vectorIP17_opaque_pthread_tNS_9allocatorIS2_EEE11__recommendB7v160006Em, symObjAddr: 0x700C, symBinAddr: 0x100008DE0, symSize: 0xB4 }
  - { offsetInCU: 0x1DCAF, offset: 0x1DCAF, size: 0x8, addend: 0x0, symName: __ZNKSt3__16vectorIP17_opaque_pthread_tNS_9allocatorIS2_EEE4sizeB7v160006Ev, symObjAddr: 0x70C0, symBinAddr: 0x100008E94, symSize: 0x28 }
  - { offsetInCU: 0x1DCD5, offset: 0x1DCD5, size: 0x8, addend: 0x0, symName: __ZNSt3__114__split_bufferIP17_opaque_pthread_tRNS_9allocatorIS2_EEEC1EmmS5_, symObjAddr: 0x70E8, symBinAddr: 0x100008EBC, symSize: 0x44 }
  - { offsetInCU: 0x1DD2B, offset: 0x1DD2B, size: 0x8, addend: 0x0, symName: __ZNSt3__114__split_bufferIP17_opaque_pthread_tRNS_9allocatorIS2_EEED1Ev, symObjAddr: 0x7244, symBinAddr: 0x100009018, symSize: 0x2C }
  - { offsetInCU: 0x1DD57, offset: 0x1DD57, size: 0x8, addend: 0x0, symName: __ZNKSt3__16vectorIP17_opaque_pthread_tNS_9allocatorIS2_EEE8max_sizeEv, symObjAddr: 0x7270, symBinAddr: 0x100009044, symSize: 0x60 }
  - { offsetInCU: 0x1DD7F, offset: 0x1DD7F, size: 0x8, addend: 0x0, symName: __ZNKSt3__16vectorIP17_opaque_pthread_tNS_9allocatorIS2_EEE20__throw_length_errorB7v160006Ev, symObjAddr: 0x72D0, symBinAddr: 0x1000090A4, symSize: 0x1C }
  - { offsetInCU: 0x1DDA5, offset: 0x1DDA5, size: 0x8, addend: 0x0, symName: __ZNKSt3__16vectorIP17_opaque_pthread_tNS_9allocatorIS2_EEE8capacityB7v160006Ev, symObjAddr: 0x72EC, symBinAddr: 0x1000090C0, symSize: 0x40 }
  - { offsetInCU: 0x1DDD5, offset: 0x1DDD5, size: 0x8, addend: 0x0, symName: __ZNSt3__116allocator_traitsINS_9allocatorIP17_opaque_pthread_tEEE8max_sizeB7v160006IS4_vEEmRKS4_, symObjAddr: 0x732C, symBinAddr: 0x100009100, symSize: 0x24 }
  - { offsetInCU: 0x1DE03, offset: 0x1DE03, size: 0x8, addend: 0x0, symName: __ZNKSt3__16vectorIP17_opaque_pthread_tNS_9allocatorIS2_EEE7__allocB7v160006Ev, symObjAddr: 0x7350, symBinAddr: 0x100009124, symSize: 0x28 }
  - { offsetInCU: 0x1DE29, offset: 0x1DE29, size: 0x8, addend: 0x0, symName: __ZNSt3__114numeric_limitsIlE3maxB7v160006Ev, symObjAddr: 0x7378, symBinAddr: 0x10000914C, symSize: 0x14 }
  - { offsetInCU: 0x1DE3D, offset: 0x1DE3D, size: 0x8, addend: 0x0, symName: __ZNKSt3__19allocatorIP17_opaque_pthread_tE8max_sizeB7v160006Ev, symObjAddr: 0x738C, symBinAddr: 0x100009160, symSize: 0x14 }
  - { offsetInCU: 0x1DE63, offset: 0x1DE63, size: 0x8, addend: 0x0, symName: __ZNKSt3__117__compressed_pairIPP17_opaque_pthread_tNS_9allocatorIS2_EEE6secondB7v160006Ev, symObjAddr: 0x73A0, symBinAddr: 0x100009174, symSize: 0x24 }
  - { offsetInCU: 0x1DE89, offset: 0x1DE89, size: 0x8, addend: 0x0, symName: __ZNKSt3__122__compressed_pair_elemINS_9allocatorIP17_opaque_pthread_tEELi1ELb1EE5__getB7v160006Ev, symObjAddr: 0x73C4, symBinAddr: 0x100009198, symSize: 0x14 }
  - { offsetInCU: 0x1DEAF, offset: 0x1DEAF, size: 0x8, addend: 0x0, symName: __ZNSt3__123__libcpp_numeric_limitsIlLb1EE3maxB7v160006Ev, symObjAddr: 0x73D8, symBinAddr: 0x1000091AC, symSize: 0x8 }
  - { offsetInCU: 0x1DEC3, offset: 0x1DEC3, size: 0x8, addend: 0x0, symName: __ZNKSt3__16vectorIP17_opaque_pthread_tNS_9allocatorIS2_EEE9__end_capB7v160006Ev, symObjAddr: 0x73E0, symBinAddr: 0x1000091B4, symSize: 0x28 }
  - { offsetInCU: 0x1DEE9, offset: 0x1DEE9, size: 0x8, addend: 0x0, symName: __ZNKSt3__117__compressed_pairIPP17_opaque_pthread_tNS_9allocatorIS2_EEE5firstB7v160006Ev, symObjAddr: 0x7408, symBinAddr: 0x1000091DC, symSize: 0x24 }
  - { offsetInCU: 0x1DF0F, offset: 0x1DF0F, size: 0x8, addend: 0x0, symName: __ZNKSt3__122__compressed_pair_elemIPP17_opaque_pthread_tLi0ELb0EE5__getB7v160006Ev, symObjAddr: 0x742C, symBinAddr: 0x100009200, symSize: 0x14 }
  - { offsetInCU: 0x1DF35, offset: 0x1DF35, size: 0x8, addend: 0x0, symName: __ZNSt3__114__split_bufferIP17_opaque_pthread_tRNS_9allocatorIS2_EEEC2EmmS5_, symObjAddr: 0x7440, symBinAddr: 0x100009214, symSize: 0xD4 }
  - { offsetInCU: 0x1DFA8, offset: 0x1DFA8, size: 0x8, addend: 0x0, symName: __ZNSt3__117__compressed_pairIPP17_opaque_pthread_tRNS_9allocatorIS2_EEEC1B7v160006IDnS6_EEOT_OT0_, symObjAddr: 0x7514, symBinAddr: 0x1000092E8, symSize: 0x3C }
  - { offsetInCU: 0x1E000, offset: 0x1E000, size: 0x8, addend: 0x0, symName: __ZNSt3__114__split_bufferIP17_opaque_pthread_tRNS_9allocatorIS2_EEE7__allocB7v160006Ev, symObjAddr: 0x7590, symBinAddr: 0x100009364, symSize: 0x28 }
  - { offsetInCU: 0x1E026, offset: 0x1E026, size: 0x8, addend: 0x0, symName: __ZNSt3__114__split_bufferIP17_opaque_pthread_tRNS_9allocatorIS2_EEE9__end_capB7v160006Ev, symObjAddr: 0x75B8, symBinAddr: 0x10000938C, symSize: 0x28 }
  - { offsetInCU: 0x1E04C, offset: 0x1E04C, size: 0x8, addend: 0x0, symName: __ZNSt3__117__compressed_pairIPP17_opaque_pthread_tRNS_9allocatorIS2_EEEC2B7v160006IDnS6_EEOT_OT0_, symObjAddr: 0x75E0, symBinAddr: 0x1000093B4, symSize: 0x48 }
  - { offsetInCU: 0x1E0A4, offset: 0x1E0A4, size: 0x8, addend: 0x0, symName: __ZNSt3__122__compressed_pair_elemIRNS_9allocatorIP17_opaque_pthread_tEELi1ELb0EEC2B7v160006IS5_vEEOT_, symObjAddr: 0x7628, symBinAddr: 0x1000093FC, symSize: 0x20 }
  - { offsetInCU: 0x1E0E6, offset: 0x1E0E6, size: 0x8, addend: 0x0, symName: __ZNSt3__19allocatorIP17_opaque_pthread_tE8allocateB7v160006Em, symObjAddr: 0x7648, symBinAddr: 0x10000941C, symSize: 0x58 }
  - { offsetInCU: 0x1E11A, offset: 0x1E11A, size: 0x8, addend: 0x0, symName: __ZNSt3__117__compressed_pairIPP17_opaque_pthread_tRNS_9allocatorIS2_EEE6secondB7v160006Ev, symObjAddr: 0x76A0, symBinAddr: 0x100009474, symSize: 0x28 }
  - { offsetInCU: 0x1E140, offset: 0x1E140, size: 0x8, addend: 0x0, symName: __ZNSt3__122__compressed_pair_elemIRNS_9allocatorIP17_opaque_pthread_tEELi1ELb0EE5__getB7v160006Ev, symObjAddr: 0x76C8, symBinAddr: 0x10000949C, symSize: 0x18 }
  - { offsetInCU: 0x1E166, offset: 0x1E166, size: 0x8, addend: 0x0, symName: __ZNSt3__117__compressed_pairIPP17_opaque_pthread_tRNS_9allocatorIS2_EEE5firstB7v160006Ev, symObjAddr: 0x76E0, symBinAddr: 0x1000094B4, symSize: 0x24 }
  - { offsetInCU: 0x1E18C, offset: 0x1E18C, size: 0x8, addend: 0x0, symName: __ZNKSt3__16vectorIP17_opaque_pthread_tNS_9allocatorIS2_EEE17__annotate_deleteB7v160006Ev, symObjAddr: 0x7704, symBinAddr: 0x1000094D8, symSize: 0xB8 }
  - { offsetInCU: 0x1E1B2, offset: 0x1E1B2, size: 0x8, addend: 0x0, symName: __ZNSt3__116reverse_iteratorIPP17_opaque_pthread_tEC1B7v160006ES3_, symObjAddr: 0x7834, symBinAddr: 0x100009608, symSize: 0x34 }
  - { offsetInCU: 0x1E1EA, offset: 0x1E1EA, size: 0x8, addend: 0x0, symName: __ZNKSt3__116reverse_iteratorIPP17_opaque_pthread_tE4baseB7v160006Ev, symObjAddr: 0x7868, symBinAddr: 0x10000963C, symSize: 0x18 }
  - { offsetInCU: 0x1E210, offset: 0x1E210, size: 0x8, addend: 0x0, symName: __ZNKSt3__16vectorIP17_opaque_pthread_tNS_9allocatorIS2_EEE14__annotate_newB7v160006Em, symObjAddr: 0x78BC, symBinAddr: 0x100009690, symSize: 0xAC }
  - { offsetInCU: 0x1E245, offset: 0x1E245, size: 0x8, addend: 0x0, symName: __ZNKSt3__16vectorIP17_opaque_pthread_tNS_9allocatorIS2_EEE31__annotate_contiguous_containerB7v160006EPKvS7_S7_S7_, symObjAddr: 0x7978, symBinAddr: 0x10000974C, symSize: 0x20 }
  - { offsetInCU: 0x1E297, offset: 0x1E297, size: 0x8, addend: 0x0, symName: __ZNKSt3__16vectorIP17_opaque_pthread_tNS_9allocatorIS2_EEE4dataB7v160006Ev, symObjAddr: 0x7998, symBinAddr: 0x10000976C, symSize: 0x28 }
  - { offsetInCU: 0x1E2E0, offset: 0x1E2E0, size: 0x8, addend: 0x0, symName: __ZNKSt3__111__move_loopINS_17_ClassicAlgPolicyEEclB7v160006INS_16reverse_iteratorIPP17_opaque_pthread_tEES8_S8_EENS_4pairIT_T1_EESA_T0_SB_, symObjAddr: 0x7CB0, symBinAddr: 0x100009A84, symSize: 0xA0 }
  - { offsetInCU: 0x1E350, offset: 0x1E350, size: 0x8, addend: 0x0, symName: __ZNSt3__18_IterOpsINS_17_ClassicAlgPolicyEE11__iter_moveB7v160006IRNS_16reverse_iteratorIPP17_opaque_pthread_tEEEENS_9enable_ifIXsr12is_referenceIDTdeclsr3stdE7declvalIRT_EEEEE5valueEDTclsr3stdE4movedeclsr3stdE7declvalISC_EEEEE4typeEOSB_, symObjAddr: 0x7EE4, symBinAddr: 0x100009CB8, symSize: 0x28 }
  - { offsetInCU: 0x1E37C, offset: 0x1E37C, size: 0x8, addend: 0x0, symName: __ZNKSt3__116reverse_iteratorIPP17_opaque_pthread_tEdeB7v160006Ev, symObjAddr: 0x7F0C, symBinAddr: 0x100009CE0, symSize: 0x28 }
  - { offsetInCU: 0x1E3B0, offset: 0x1E3B0, size: 0x8, addend: 0x0, symName: __ZNSt3__116reverse_iteratorIPP17_opaque_pthread_tEppB7v160006Ev, symObjAddr: 0x7F34, symBinAddr: 0x100009D08, symSize: 0x20 }
  - { offsetInCU: 0x1E3D6, offset: 0x1E3D6, size: 0x8, addend: 0x0, symName: __ZNSt3__18_IterOpsINS_17_ClassicAlgPolicyEE25__validate_iter_referenceB7v160006IRNS_16reverse_iteratorIPP17_opaque_pthread_tEEEEvv, symObjAddr: 0x7F54, symBinAddr: 0x100009D28, symSize: 0x4 }
  - { offsetInCU: 0x1E3F4, offset: 0x1E3F4, size: 0x8, addend: 0x0, symName: __ZNSt3__118__unwrap_iter_implINS_16reverse_iteratorIPP17_opaque_pthread_tEELb0EE8__unwrapB7v160006ES5_, symObjAddr: 0x7F58, symBinAddr: 0x100009D2C, symSize: 0x24 }
  - { offsetInCU: 0x1E41C, offset: 0x1E41C, size: 0x8, addend: 0x0, symName: __ZNSt3__14pairINS_16reverse_iteratorIPP17_opaque_pthread_tEES5_EC1B7v160006IS5_S5_LPv0EEEOT_OT0_, symObjAddr: 0x7F7C, symBinAddr: 0x100009D50, symSize: 0x3C }
  - { offsetInCU: 0x1E47A, offset: 0x1E47A, size: 0x8, addend: 0x0, symName: __ZNSt3__14pairINS_16reverse_iteratorIPP17_opaque_pthread_tEES5_EC2B7v160006IS5_S5_LPv0EEEOT_OT0_, symObjAddr: 0x7FB8, symBinAddr: 0x100009D8C, symSize: 0x34 }
  - { offsetInCU: 0x1E4D8, offset: 0x1E4D8, size: 0x8, addend: 0x0, symName: __ZNSt3__118__unwrap_iter_implINS_16reverse_iteratorIPP17_opaque_pthread_tEELb0EE8__rewrapB7v160006ES5_S5_, symObjAddr: 0x7FEC, symBinAddr: 0x100009DC0, symSize: 0x2C }
  - { offsetInCU: 0x1E505, offset: 0x1E505, size: 0x8, addend: 0x0, symName: __ZNSt3__116reverse_iteratorIPP17_opaque_pthread_tEC2B7v160006ES3_, symObjAddr: 0x8018, symBinAddr: 0x100009DEC, symSize: 0x28 }
  - { offsetInCU: 0x1E53D, offset: 0x1E53D, size: 0x8, addend: 0x0, symName: __ZNSt3__114__split_bufferIP17_opaque_pthread_tRNS_9allocatorIS2_EEED2Ev, symObjAddr: 0x8040, symBinAddr: 0x100009E14, symSize: 0x8C }
  - { offsetInCU: 0x1E569, offset: 0x1E569, size: 0x8, addend: 0x0, symName: __ZNSt3__114__split_bufferIP17_opaque_pthread_tRNS_9allocatorIS2_EEE5clearB7v160006Ev, symObjAddr: 0x80CC, symBinAddr: 0x100009EA0, symSize: 0x28 }
  - { offsetInCU: 0x1E58F, offset: 0x1E58F, size: 0x8, addend: 0x0, symName: __ZNSt3__116allocator_traitsINS_9allocatorIP17_opaque_pthread_tEEE10deallocateB7v160006ERS4_PS3_m, symObjAddr: 0x80F4, symBinAddr: 0x100009EC8, symSize: 0x34 }
  - { offsetInCU: 0x1E5D1, offset: 0x1E5D1, size: 0x8, addend: 0x0, symName: __ZNKSt3__114__split_bufferIP17_opaque_pthread_tRNS_9allocatorIS2_EEE8capacityB7v160006Ev, symObjAddr: 0x8128, symBinAddr: 0x100009EFC, symSize: 0x40 }
  - { offsetInCU: 0x1E5F7, offset: 0x1E5F7, size: 0x8, addend: 0x0, symName: __ZNSt3__114__split_bufferIP17_opaque_pthread_tRNS_9allocatorIS2_EEE17__destruct_at_endB7v160006EPS2_, symObjAddr: 0x8168, symBinAddr: 0x100009F3C, symSize: 0x2C }
  - { offsetInCU: 0x1E62B, offset: 0x1E62B, size: 0x8, addend: 0x0, symName: __ZNSt3__114__split_bufferIP17_opaque_pthread_tRNS_9allocatorIS2_EEE17__destruct_at_endB7v160006EPS2_NS_17integral_constantIbLb0EEE, symObjAddr: 0x8194, symBinAddr: 0x100009F68, symSize: 0x80 }
  - { offsetInCU: 0x1E66B, offset: 0x1E66B, size: 0x8, addend: 0x0, symName: __ZNSt3__116allocator_traitsINS_9allocatorIP17_opaque_pthread_tEEE7destroyB7v160006IS3_vEEvRS4_PT_, symObjAddr: 0x8214, symBinAddr: 0x100009FE8, symSize: 0x2C }
  - { offsetInCU: 0x1E6A8, offset: 0x1E6A8, size: 0x8, addend: 0x0, symName: __ZNSt3__19allocatorIP17_opaque_pthread_tE7destroyB7v160006EPS2_, symObjAddr: 0x8240, symBinAddr: 0x10000A014, symSize: 0x14 }
  - { offsetInCU: 0x1E6DC, offset: 0x1E6DC, size: 0x8, addend: 0x0, symName: __ZNSt3__19allocatorIP17_opaque_pthread_tE10deallocateB7v160006EPS2_m, symObjAddr: 0x8254, symBinAddr: 0x10000A028, symSize: 0x40 }
  - { offsetInCU: 0x1E71E, offset: 0x1E71E, size: 0x8, addend: 0x0, symName: __ZNKSt3__114__split_bufferIP17_opaque_pthread_tRNS_9allocatorIS2_EEE9__end_capB7v160006Ev, symObjAddr: 0x8294, symBinAddr: 0x10000A068, symSize: 0x28 }
  - { offsetInCU: 0x1E744, offset: 0x1E744, size: 0x8, addend: 0x0, symName: __ZNKSt3__117__compressed_pairIPP17_opaque_pthread_tRNS_9allocatorIS2_EEE5firstB7v160006Ev, symObjAddr: 0x82BC, symBinAddr: 0x10000A090, symSize: 0x24 }
  - { offsetInCU: 0x1E76A, offset: 0x1E76A, size: 0x8, addend: 0x0, symName: __ZNSt3__15queueI4TaskNS_5dequeIS1_NS_9allocatorIS1_EEEEED2Ev, symObjAddr: 0x82E0, symBinAddr: 0x10000A0B4, symSize: 0x2C }
  - { offsetInCU: 0x1E797, offset: 0x1E797, size: 0x8, addend: 0x0, symName: __ZNSt3__15dequeI4TaskNS_9allocatorIS1_EEED1B7v160006Ev, symObjAddr: 0x830C, symBinAddr: 0x10000A0E0, symSize: 0x2C }
  - { offsetInCU: 0x1E7C1, offset: 0x1E7C1, size: 0x8, addend: 0x0, symName: __ZNSt3__15dequeI4TaskNS_9allocatorIS1_EEED2B7v160006Ev, symObjAddr: 0x8338, symBinAddr: 0x10000A10C, symSize: 0x9C }
  - { offsetInCU: 0x1E817, offset: 0x1E817, size: 0x8, addend: 0x0, symName: __ZNSt3__15dequeI4TaskNS_9allocatorIS1_EEE5clearEv, symObjAddr: 0x83D4, symBinAddr: 0x10000A1A8, symSize: 0x178 }
  - { offsetInCU: 0x1E873, offset: 0x1E873, size: 0x8, addend: 0x0, symName: __ZNSt3__114__split_bufferIP4TaskNS_9allocatorIS2_EEE3endB7v160006Ev, symObjAddr: 0x854C, symBinAddr: 0x10000A320, symSize: 0x18 }
  - { offsetInCU: 0x1E899, offset: 0x1E899, size: 0x8, addend: 0x0, symName: __ZNSt3__114__split_bufferIP4TaskNS_9allocatorIS2_EEED1Ev, symObjAddr: 0x8564, symBinAddr: 0x10000A338, symSize: 0x2C }
  - { offsetInCU: 0x1E8C5, offset: 0x1E8C5, size: 0x8, addend: 0x0, symName: __ZNSt3__15dequeI4TaskNS_9allocatorIS1_EEE5beginB7v160006Ev, symObjAddr: 0x8590, symBinAddr: 0x10000A364, symSize: 0xB8 }
  - { offsetInCU: 0x1E8FA, offset: 0x1E8FA, size: 0x8, addend: 0x0, symName: __ZNSt3__15dequeI4TaskNS_9allocatorIS1_EEE3endB7v160006Ev, symObjAddr: 0x8648, symBinAddr: 0x10000A41C, symSize: 0xBC }
  - { offsetInCU: 0x1E93E, offset: 0x1E93E, size: 0x8, addend: 0x0, symName: __ZNKSt3__116__deque_iteratorI4TaskPS1_RS1_PS2_lLl256EEdeB7v160006Ev, symObjAddr: 0x8738, symBinAddr: 0x10000A50C, symSize: 0x18 }
  - { offsetInCU: 0x1E964, offset: 0x1E964, size: 0x8, addend: 0x0, symName: __ZNSt3__116__deque_iteratorI4TaskPS1_RS1_PS2_lLl256EEppB7v160006Ev, symObjAddr: 0x8750, symBinAddr: 0x10000A524, symSize: 0x70 }
  - { offsetInCU: 0x1E98A, offset: 0x1E98A, size: 0x8, addend: 0x0, symName: __ZNKSt3__114__split_bufferIP4TaskNS_9allocatorIS2_EEE4sizeB7v160006Ev, symObjAddr: 0x87C0, symBinAddr: 0x10000A594, symSize: 0x28 }
  - { offsetInCU: 0x1E9B0, offset: 0x1E9B0, size: 0x8, addend: 0x0, symName: __ZNKSt3__114__split_bufferIP4TaskNS_9allocatorIS2_EEE5emptyB7v160006Ev, symObjAddr: 0x87E8, symBinAddr: 0x10000A5BC, symSize: 0x28 }
  - { offsetInCU: 0x1E9D6, offset: 0x1E9D6, size: 0x8, addend: 0x0, symName: __ZNSt3__116__deque_iteratorI4TaskPS1_RS1_PS2_lLl256EEC1B7v160006ES4_S2_, symObjAddr: 0x8810, symBinAddr: 0x10000A5E4, symSize: 0x3C }
  - { offsetInCU: 0x1EA1E, offset: 0x1EA1E, size: 0x8, addend: 0x0, symName: __ZNSt3__116__deque_iteratorI4TaskPS1_RS1_PS2_lLl256EEC2B7v160006ES4_S2_, symObjAddr: 0x884C, symBinAddr: 0x10000A620, symSize: 0x2C }
  - { offsetInCU: 0x1EA66, offset: 0x1EA66, size: 0x8, addend: 0x0, symName: __ZNSt3__114__split_bufferIP4TaskNS_9allocatorIS2_EEED2Ev, symObjAddr: 0x88A8, symBinAddr: 0x10000A67C, symSize: 0x8C }
  - { offsetInCU: 0x1EA92, offset: 0x1EA92, size: 0x8, addend: 0x0, symName: __ZNSt3__114__split_bufferIP4TaskNS_9allocatorIS2_EEE5clearB7v160006Ev, symObjAddr: 0x8934, symBinAddr: 0x10000A708, symSize: 0x28 }
  - { offsetInCU: 0x1EAB8, offset: 0x1EAB8, size: 0x8, addend: 0x0, symName: __ZNSt3__116allocator_traitsINS_9allocatorIP4TaskEEE10deallocateB7v160006ERS4_PS3_m, symObjAddr: 0x895C, symBinAddr: 0x10000A730, symSize: 0x34 }
  - { offsetInCU: 0x1EAFA, offset: 0x1EAFA, size: 0x8, addend: 0x0, symName: __ZNSt3__114__split_bufferIP4TaskNS_9allocatorIS2_EEE7__allocB7v160006Ev, symObjAddr: 0x8990, symBinAddr: 0x10000A764, symSize: 0x28 }
  - { offsetInCU: 0x1EB20, offset: 0x1EB20, size: 0x8, addend: 0x0, symName: __ZNKSt3__114__split_bufferIP4TaskNS_9allocatorIS2_EEE8capacityB7v160006Ev, symObjAddr: 0x89B8, symBinAddr: 0x10000A78C, symSize: 0x40 }
  - { offsetInCU: 0x1EB46, offset: 0x1EB46, size: 0x8, addend: 0x0, symName: __ZNSt3__114__split_bufferIP4TaskNS_9allocatorIS2_EEE17__destruct_at_endB7v160006EPS2_, symObjAddr: 0x89F8, symBinAddr: 0x10000A7CC, symSize: 0x2C }
  - { offsetInCU: 0x1EB7A, offset: 0x1EB7A, size: 0x8, addend: 0x0, symName: __ZNSt3__114__split_bufferIP4TaskNS_9allocatorIS2_EEE17__destruct_at_endB7v160006EPS2_NS_17integral_constantIbLb0EEE, symObjAddr: 0x8A24, symBinAddr: 0x10000A7F8, symSize: 0x80 }
  - { offsetInCU: 0x1EBBA, offset: 0x1EBBA, size: 0x8, addend: 0x0, symName: __ZNSt3__116allocator_traitsINS_9allocatorIP4TaskEEE7destroyB7v160006IS3_vEEvRS4_PT_, symObjAddr: 0x8AA4, symBinAddr: 0x10000A878, symSize: 0x2C }
  - { offsetInCU: 0x1EBF7, offset: 0x1EBF7, size: 0x8, addend: 0x0, symName: __ZNSt3__19allocatorIP4TaskE7destroyB7v160006EPS2_, symObjAddr: 0x8AE4, symBinAddr: 0x10000A8B8, symSize: 0x14 }
  - { offsetInCU: 0x1EC2B, offset: 0x1EC2B, size: 0x8, addend: 0x0, symName: __ZNSt3__19allocatorIP4TaskE10deallocateB7v160006EPS2_m, symObjAddr: 0x8AF8, symBinAddr: 0x10000A8CC, symSize: 0x40 }
  - { offsetInCU: 0x1EC6D, offset: 0x1EC6D, size: 0x8, addend: 0x0, symName: __ZNSt3__117__compressed_pairIPP4TaskNS_9allocatorIS2_EEE6secondB7v160006Ev, symObjAddr: 0x8B38, symBinAddr: 0x10000A90C, symSize: 0x24 }
  - { offsetInCU: 0x1EC93, offset: 0x1EC93, size: 0x8, addend: 0x0, symName: __ZNSt3__122__compressed_pair_elemINS_9allocatorIP4TaskEELi1ELb1EE5__getB7v160006Ev, symObjAddr: 0x8B5C, symBinAddr: 0x10000A930, symSize: 0x14 }
  - { offsetInCU: 0x1ECB9, offset: 0x1ECB9, size: 0x8, addend: 0x0, symName: __ZNKSt3__114__split_bufferIP4TaskNS_9allocatorIS2_EEE9__end_capB7v160006Ev, symObjAddr: 0x8B70, symBinAddr: 0x10000A944, symSize: 0x28 }
  - { offsetInCU: 0x1ECDF, offset: 0x1ECDF, size: 0x8, addend: 0x0, symName: __ZNKSt3__117__compressed_pairIPP4TaskNS_9allocatorIS2_EEE5firstB7v160006Ev, symObjAddr: 0x8B98, symBinAddr: 0x10000A96C, symSize: 0x24 }
  - { offsetInCU: 0x1ED05, offset: 0x1ED05, size: 0x8, addend: 0x0, symName: __ZNKSt3__122__compressed_pair_elemIPP4TaskLi0ELb0EE5__getB7v160006Ev, symObjAddr: 0x8BBC, symBinAddr: 0x10000A990, symSize: 0x14 }
  - { offsetInCU: 0x1ED2B, offset: 0x1ED2B, size: 0x8, addend: 0x0, symName: __ZNSt3__16vectorIP17_opaque_pthread_tNS_9allocatorIS2_EEED2B7v160006Ev, symObjAddr: 0x8BD0, symBinAddr: 0x10000A9A4, symSize: 0x44 }
  - { offsetInCU: 0x1ED55, offset: 0x1ED55, size: 0x8, addend: 0x0, symName: __ZNSt3__16vectorIP17_opaque_pthread_tNS_9allocatorIS2_EEE16__destroy_vectorC1ERS5_, symObjAddr: 0x8C14, symBinAddr: 0x10000A9E8, symSize: 0x34 }
  - { offsetInCU: 0x1ED8E, offset: 0x1ED8E, size: 0x8, addend: 0x0, symName: __ZNSt3__16vectorIP17_opaque_pthread_tNS_9allocatorIS2_EEE16__destroy_vectorclB7v160006Ev, symObjAddr: 0x8C48, symBinAddr: 0x10000AA1C, symSize: 0x9C }
  - { offsetInCU: 0x1EDB4, offset: 0x1EDB4, size: 0x8, addend: 0x0, symName: __ZNSt3__16vectorIP17_opaque_pthread_tNS_9allocatorIS2_EEE16__destroy_vectorC2ERS5_, symObjAddr: 0x8CE4, symBinAddr: 0x10000AAB8, symSize: 0x20 }
  - { offsetInCU: 0x1EDED, offset: 0x1EDED, size: 0x8, addend: 0x0, symName: __ZNSt3__16vectorIP17_opaque_pthread_tNS_9allocatorIS2_EEE7__clearB7v160006Ev, symObjAddr: 0x8D14, symBinAddr: 0x10000AAE8, symSize: 0x28 }
  - { offsetInCU: 0x1EE13, offset: 0x1EE13, size: 0x8, addend: 0x0, symName: __ZNSt3__16vectorIP17_opaque_pthread_tNS_9allocatorIS2_EEE22__base_destruct_at_endB7v160006EPS2_, symObjAddr: 0x8D3C, symBinAddr: 0x10000AB10, symSize: 0x8C }
  - { offsetInCU: 0x1EE57, offset: 0x1EE57, size: 0x8, addend: 0x0, symName: __ZN10ThreadPoolD2Ev, symObjAddr: 0x8DC8, symBinAddr: 0x10000AB9C, symSize: 0x104 }
  - { offsetInCU: 0x1EED2, offset: 0x1EED2, size: 0x8, addend: 0x0, symName: __ZNSt3__16vectorIP17_opaque_pthread_tNS_9allocatorIS2_EEE5beginB7v160006Ev, symObjAddr: 0x8ECC, symBinAddr: 0x10000ACA0, symSize: 0x30 }
  - { offsetInCU: 0x1EEFA, offset: 0x1EEFA, size: 0x8, addend: 0x0, symName: __ZNSt3__16vectorIP17_opaque_pthread_tNS_9allocatorIS2_EEE3endB7v160006Ev, symObjAddr: 0x8EFC, symBinAddr: 0x10000ACD0, symSize: 0x30 }
  - { offsetInCU: 0x1EF22, offset: 0x1EF22, size: 0x8, addend: 0x0, symName: __ZNKSt3__111__wrap_iterIPP17_opaque_pthread_tEdeB7v160006Ev, symObjAddr: 0x8F60, symBinAddr: 0x10000AD34, symSize: 0x18 }
  - { offsetInCU: 0x1EF48, offset: 0x1EF48, size: 0x8, addend: 0x0, symName: __ZNSt3__111__wrap_iterIPP17_opaque_pthread_tEppB7v160006Ev, symObjAddr: 0x8F78, symBinAddr: 0x10000AD4C, symSize: 0x20 }
  - { offsetInCU: 0x1EF6E, offset: 0x1EF6E, size: 0x8, addend: 0x0, symName: __ZNSt3__16vectorIP17_opaque_pthread_tNS_9allocatorIS2_EEE11__make_iterB7v160006EPS2_, symObjAddr: 0x8F98, symBinAddr: 0x10000AD6C, symSize: 0x34 }
  - { offsetInCU: 0x1EFA3, offset: 0x1EFA3, size: 0x8, addend: 0x0, symName: __ZNSt3__111__wrap_iterIPP17_opaque_pthread_tEC1B7v160006EPKvS3_, symObjAddr: 0x8FCC, symBinAddr: 0x10000ADA0, symSize: 0x3C }
  - { offsetInCU: 0x1EFE9, offset: 0x1EFE9, size: 0x8, addend: 0x0, symName: __ZNSt3__111__wrap_iterIPP17_opaque_pthread_tEC2B7v160006EPKvS3_, symObjAddr: 0x9008, symBinAddr: 0x10000ADDC, symSize: 0x24 }
  - { offsetInCU: 0x1F02F, offset: 0x1F02F, size: 0x8, addend: 0x0, symName: __ZNKSt3__111__wrap_iterIPP17_opaque_pthread_tE4baseB7v160006Ev, symObjAddr: 0x9074, symBinAddr: 0x10000AE48, symSize: 0x18 }
  - { offsetInCU: 0x1F096, offset: 0x1F096, size: 0x8, addend: 0x0, symName: __ZN13WithWriteLockC1ER16ReaderWriterLock, symObjAddr: 0x908C, symBinAddr: 0x10000AE60, symSize: 0x34 }
  - { offsetInCU: 0x1F0CE, offset: 0x1F0CE, size: 0x8, addend: 0x0, symName: __ZNK8UrlQueue5emptyEv, symObjAddr: 0x90C0, symBinAddr: 0x10000AE94, symSize: 0x54 }
  - { offsetInCU: 0x1F0F4, offset: 0x1F0F4, size: 0x8, addend: 0x0, symName: __ZN8UrlQueue10getNextUrlEv, symObjAddr: 0x9114, symBinAddr: 0x10000AEE8, symSize: 0x140 }
  - { offsetInCU: 0x1F129, offset: 0x1F129, size: 0x8, addend: 0x0, symName: __ZN13WithWriteLockD1Ev, symObjAddr: 0x9254, symBinAddr: 0x10000B028, symSize: 0x2C }
  - { offsetInCU: 0x1F153, offset: 0x1F153, size: 0x8, addend: 0x0, symName: __ZN13WithWriteLockC2ER16ReaderWriterLock, symObjAddr: 0x9280, symBinAddr: 0x10000B054, symSize: 0x3C }
  - { offsetInCU: 0x1F18B, offset: 0x1F18B, size: 0x8, addend: 0x0, symName: __ZN16ReaderWriterLock9writeLockEv, symObjAddr: 0x92BC, symBinAddr: 0x10000B090, symSize: 0x28 }
  - { offsetInCU: 0x1F1B1, offset: 0x1F1B1, size: 0x8, addend: 0x0, symName: __ZNK6vectorI6stringE5emptyEv, symObjAddr: 0x92E4, symBinAddr: 0x10000B0B8, symSize: 0x24 }
  - { offsetInCU: 0x1F1D7, offset: 0x1F1D7, size: 0x8, addend: 0x0, symName: __ZNKSt3__15queueI6stringNS_5dequeIS1_NS_9allocatorIS1_EEEEE5emptyB7v160006Ev, symObjAddr: 0x9308, symBinAddr: 0x10000B0DC, symSize: 0x28 }
  - { offsetInCU: 0x1F1FD, offset: 0x1F1FD, size: 0x8, addend: 0x0, symName: __ZNKSt3__15dequeI6stringNS_9allocatorIS1_EEE5emptyB7v160006Ev, symObjAddr: 0x9330, symBinAddr: 0x10000B104, symSize: 0x30 }
  - { offsetInCU: 0x1F223, offset: 0x1F223, size: 0x8, addend: 0x0, symName: __ZN8UrlQueue11fillUrlPoolEv, symObjAddr: 0x9360, symBinAddr: 0x10000B134, symSize: 0x168 }
  - { offsetInCU: 0x1F28F, offset: 0x1F28F, size: 0x8, addend: 0x0, symName: __ZNSt3__15queueI6stringNS_5dequeIS1_NS_9allocatorIS1_EEEEE5frontB7v160006Ev, symObjAddr: 0x94C8, symBinAddr: 0x10000B29C, symSize: 0x24 }
  - { offsetInCU: 0x1F2B5, offset: 0x1F2B5, size: 0x8, addend: 0x0, symName: __ZN6stringC1ERKS_, symObjAddr: 0x94EC, symBinAddr: 0x10000B2C0, symSize: 0x34 }
  - { offsetInCU: 0x1F2ED, offset: 0x1F2ED, size: 0x8, addend: 0x0, symName: __ZNSt3__15queueI6stringNS_5dequeIS1_NS_9allocatorIS1_EEEEE3popB7v160006Ev, symObjAddr: 0x9520, symBinAddr: 0x10000B2F4, symSize: 0x24 }
  - { offsetInCU: 0x1F313, offset: 0x1F313, size: 0x8, addend: 0x0, symName: __ZNK6vectorI6stringE4sizeEv, symObjAddr: 0x9544, symBinAddr: 0x10000B318, symSize: 0x18 }
  - { offsetInCU: 0x1F339, offset: 0x1F339, size: 0x8, addend: 0x0, symName: __ZN6vectorI6stringEixEm, symObjAddr: 0x955C, symBinAddr: 0x10000B330, symSize: 0xB0 }
  - { offsetInCU: 0x1F36D, offset: 0x1F36D, size: 0x8, addend: 0x0, symName: __ZNSt3__15queueI6stringNS_5dequeIS1_NS_9allocatorIS1_EEEEE4pushB7v160006ERKS1_, symObjAddr: 0x960C, symBinAddr: 0x10000B3E0, symSize: 0x2C }
  - { offsetInCU: 0x1F3A2, offset: 0x1F3A2, size: 0x8, addend: 0x0, symName: __ZN6vectorI6stringE7popBackEv, symObjAddr: 0x96AC, symBinAddr: 0x10000B480, symSize: 0xA0 }
  - { offsetInCU: 0x1F3C8, offset: 0x1F3C8, size: 0x8, addend: 0x0, symName: __ZNSt3__15dequeI6stringNS_9allocatorIS1_EEE9push_backERKS1_, symObjAddr: 0x974C, symBinAddr: 0x10000B520, symSize: 0xA0 }
  - { offsetInCU: 0x1F40E, offset: 0x1F40E, size: 0x8, addend: 0x0, symName: __ZNKSt3__15dequeI6stringNS_9allocatorIS1_EEE12__back_spareB7v160006Ev, symObjAddr: 0x97EC, symBinAddr: 0x10000B5C0, symSize: 0x54 }
  - { offsetInCU: 0x1F434, offset: 0x1F434, size: 0x8, addend: 0x0, symName: __ZNSt3__15dequeI6stringNS_9allocatorIS1_EEE19__add_back_capacityEv, symObjAddr: 0x9840, symBinAddr: 0x10000B614, symSize: 0x314 }
  - { offsetInCU: 0x1F4EA, offset: 0x1F4EA, size: 0x8, addend: 0x0, symName: __ZNSt3__116allocator_traitsINS_9allocatorI6stringEEE9constructB7v160006IS2_JRKS2_EvEEvRS3_PT_DpOT0_, symObjAddr: 0x9B54, symBinAddr: 0x10000B928, symSize: 0x34 }
  - { offsetInCU: 0x1F541, offset: 0x1F541, size: 0x8, addend: 0x0, symName: __ZNKSt3__15dequeI6stringNS_9allocatorIS1_EEE10__capacityB7v160006Ev, symObjAddr: 0x9B88, symBinAddr: 0x10000B95C, symSize: 0x64 }
  - { offsetInCU: 0x1F567, offset: 0x1F567, size: 0x8, addend: 0x0, symName: __ZNKSt3__15dequeI6stringNS_9allocatorIS1_EEE13__front_spareB7v160006Ev, symObjAddr: 0x9BEC, symBinAddr: 0x10000B9C0, symSize: 0x18 }
  - { offsetInCU: 0x1F58D, offset: 0x1F58D, size: 0x8, addend: 0x0, symName: __ZNSt3__114__split_bufferIP6stringNS_9allocatorIS2_EEE9push_backB7v160006ERKS2_, symObjAddr: 0x9C04, symBinAddr: 0x10000B9D8, symSize: 0x260 }
  - { offsetInCU: 0x1F606, offset: 0x1F606, size: 0x8, addend: 0x0, symName: __ZNKSt3__114__split_bufferIP6stringNS_9allocatorIS2_EEE12__back_spareB7v160006Ev, symObjAddr: 0x9E64, symBinAddr: 0x10000BC38, symSize: 0x40 }
  - { offsetInCU: 0x1F62C, offset: 0x1F62C, size: 0x8, addend: 0x0, symName: __ZNSt3__114__split_bufferIP6stringNS_9allocatorIS2_EEE9push_backEOS2_, symObjAddr: 0x9EA4, symBinAddr: 0x10000BC78, symSize: 0x260 }
  - { offsetInCU: 0x1F6A5, offset: 0x1F6A5, size: 0x8, addend: 0x0, symName: __ZNSt3__116allocator_traitsINS_9allocatorI6stringEEE8allocateB7v160006ERS3_m, symObjAddr: 0xA104, symBinAddr: 0x10000BED8, symSize: 0x2C }
  - { offsetInCU: 0x1F6D8, offset: 0x1F6D8, size: 0x8, addend: 0x0, symName: __ZNSt3__114__split_bufferIP6stringNS_9allocatorIS2_EEE10push_frontEOS2_, symObjAddr: 0xA130, symBinAddr: 0x10000BF04, symSize: 0x25C }
  - { offsetInCU: 0x1F751, offset: 0x1F751, size: 0x8, addend: 0x0, symName: __ZNSt3__114__split_bufferIP6stringRNS_9allocatorIS2_EEEC1EmmS5_, symObjAddr: 0xA38C, symBinAddr: 0x10000C160, symSize: 0x44 }
  - { offsetInCU: 0x1F7AC, offset: 0x1F7AC, size: 0x8, addend: 0x0, symName: __ZNSt3__122__allocator_destructorINS_9allocatorI6stringEEEC1B7v160006ERS3_m, symObjAddr: 0xA3D0, symBinAddr: 0x10000C1A4, symSize: 0x3C }
  - { offsetInCU: 0x1F86F, offset: 0x1F86F, size: 0x8, addend: 0x0, symName: __ZNSt3__110unique_ptrIP6stringNS_22__allocator_destructorINS_9allocatorIS1_EEEEEC1B7v160006ILb1EvEES2_NS_16__dependent_typeINS_27__unique_ptr_deleter_sfinaeIS6_EEXT_EE20__good_rval_ref_typeE, symObjAddr: 0xA40C, symBinAddr: 0x10000C1E0, symSize: 0x3C }
  - { offsetInCU: 0x1F8C0, offset: 0x1F8C0, size: 0x8, addend: 0x0, symName: __ZNSt3__114__split_bufferIP6stringRNS_9allocatorIS2_EEE9push_backEOS2_, symObjAddr: 0xA448, symBinAddr: 0x10000C21C, symSize: 0x260 }
  - { offsetInCU: 0x1F939, offset: 0x1F939, size: 0x8, addend: 0x0, symName: __ZNKSt3__110unique_ptrIP6stringNS_22__allocator_destructorINS_9allocatorIS1_EEEEE3getB7v160006Ev, symObjAddr: 0xA6A8, symBinAddr: 0x10000C47C, symSize: 0x28 }
  - { offsetInCU: 0x1F95F, offset: 0x1F95F, size: 0x8, addend: 0x0, symName: __ZNSt3__110unique_ptrIP6stringNS_22__allocator_destructorINS_9allocatorIS1_EEEEE7releaseB7v160006Ev, symObjAddr: 0xA6D0, symBinAddr: 0x10000C4A4, symSize: 0x44 }
  - { offsetInCU: 0x1F994, offset: 0x1F994, size: 0x8, addend: 0x0, symName: __ZNSt3__114__split_bufferIP6stringRNS_9allocatorIS2_EEE10push_frontERKS2_, symObjAddr: 0xA714, symBinAddr: 0x10000C4E8, symSize: 0x25C }
  - { offsetInCU: 0x1FA0D, offset: 0x1FA0D, size: 0x8, addend: 0x0, symName: __ZNSt3__114__split_bufferIP6stringNS_9allocatorIS2_EEE9__end_capB7v160006Ev, symObjAddr: 0xA9AC, symBinAddr: 0x10000C780, symSize: 0x28 }
  - { offsetInCU: 0x1FA33, offset: 0x1FA33, size: 0x8, addend: 0x0, symName: __ZNSt3__114__split_bufferIP6stringRNS_9allocatorIS2_EEE9__end_capB7v160006Ev, symObjAddr: 0xA9D4, symBinAddr: 0x10000C7A8, symSize: 0x28 }
  - { offsetInCU: 0x1FA59, offset: 0x1FA59, size: 0x8, addend: 0x0, symName: __ZNSt3__110unique_ptrIP6stringNS_22__allocator_destructorINS_9allocatorIS1_EEEEED1B7v160006Ev, symObjAddr: 0xA9FC, symBinAddr: 0x10000C7D0, symSize: 0x2C }
  - { offsetInCU: 0x1FA83, offset: 0x1FA83, size: 0x8, addend: 0x0, symName: __ZNSt3__114__split_bufferIP6stringRNS_9allocatorIS2_EEED1Ev, symObjAddr: 0xAA28, symBinAddr: 0x10000C7FC, symSize: 0x2C }
  - { offsetInCU: 0x1FAAF, offset: 0x1FAAF, size: 0x8, addend: 0x0, symName: __ZNSt3__114__split_bufferIP6stringRNS_9allocatorIS2_EEE18__construct_at_endINS_13move_iteratorIPS2_EEEENS_9enable_ifIXsr27__is_cpp17_forward_iteratorIT_EE5valueEvE4typeESC_SC_, symObjAddr: 0xAA94, symBinAddr: 0x10000C868, symSize: 0xFC }
  - { offsetInCU: 0x1FB0B, offset: 0x1FB0B, size: 0x8, addend: 0x0, symName: __ZNSt3__113move_iteratorIPP6stringEC1B7v160006ES3_, symObjAddr: 0xAB90, symBinAddr: 0x10000C964, symSize: 0x34 }
  - { offsetInCU: 0x1FB43, offset: 0x1FB43, size: 0x8, addend: 0x0, symName: __ZNSt3__116allocator_traitsINS_9allocatorIP6stringEEE9constructB7v160006IS3_JRKS3_EvEEvRS4_PT_DpOT0_, symObjAddr: 0xABC4, symBinAddr: 0x10000C998, symSize: 0x34 }
  - { offsetInCU: 0x1FBBD, offset: 0x1FBBD, size: 0x8, addend: 0x0, symName: __ZNKSt3__114__move_trivialclB7v160006IP6stringS3_Li0EEENS_4pairIPT_PT0_EES6_S6_S8_, symObjAddr: 0xAD94, symBinAddr: 0x10000CB68, symSize: 0x48 }
  - { offsetInCU: 0x1FC2A, offset: 0x1FC2A, size: 0x8, addend: 0x0, symName: __ZNSt3__14pairIPP6stringS3_EC1B7v160006IRS3_S3_LPv0EEEOT_OT0_, symObjAddr: 0xAF5C, symBinAddr: 0x10000CD30, symSize: 0x3C }
  - { offsetInCU: 0x1FC88, offset: 0x1FC88, size: 0x8, addend: 0x0, symName: __ZNSt3__14pairIPP6stringS3_EC2B7v160006IRS3_S3_LPv0EEEOT_OT0_, symObjAddr: 0xAF98, symBinAddr: 0x10000CD6C, symSize: 0x34 }
  - { offsetInCU: 0x1FCE6, offset: 0x1FCE6, size: 0x8, addend: 0x0, symName: __ZNSt3__118__unwrap_iter_implIPP6stringLb1EE8__unwrapB7v160006ES3_, symObjAddr: 0xAFCC, symBinAddr: 0x10000CDA0, symSize: 0x24 }
  - { offsetInCU: 0x1FD09, offset: 0x1FD09, size: 0x8, addend: 0x0, symName: __ZNSt3__14pairIPP6stringS3_EC1B7v160006IS3_S3_LPv0EEEOT_OT0_, symObjAddr: 0xAFF0, symBinAddr: 0x10000CDC4, symSize: 0x3C }
  - { offsetInCU: 0x1FD67, offset: 0x1FD67, size: 0x8, addend: 0x0, symName: __ZNSt3__14pairIPP6stringS3_EC2B7v160006IS3_S3_LPv0EEEOT_OT0_, symObjAddr: 0xB02C, symBinAddr: 0x10000CE00, symSize: 0x34 }
  - { offsetInCU: 0x1FDC5, offset: 0x1FDC5, size: 0x8, addend: 0x0, symName: __ZNSt3__118__unwrap_iter_implIPP6stringLb1EE8__rewrapB7v160006ES3_S3_, symObjAddr: 0xB060, symBinAddr: 0x10000CE34, symSize: 0x50 }
  - { offsetInCU: 0x1FE00, offset: 0x1FE00, size: 0x8, addend: 0x0, symName: __ZNSt3__114__split_bufferIP6stringRNS_9allocatorIS2_EEE21_ConstructTransactionC1B7v160006EPPS2_m, symObjAddr: 0xB0EC, symBinAddr: 0x10000CEC0, symSize: 0x3C }
  - { offsetInCU: 0x1FE46, offset: 0x1FE46, size: 0x8, addend: 0x0, symName: __ZNSt3__116allocator_traitsINS_9allocatorIP6stringEEE9constructB7v160006IS3_JS3_EvEEvRS4_PT_DpOT0_, symObjAddr: 0xB128, symBinAddr: 0x10000CEFC, symSize: 0x34 }
  - { offsetInCU: 0x1FE9D, offset: 0x1FE9D, size: 0x8, addend: 0x0, symName: __ZNSt3__114__split_bufferIP6stringRNS_9allocatorIS2_EEE7__allocB7v160006Ev, symObjAddr: 0xB15C, symBinAddr: 0x10000CF30, symSize: 0x28 }
  - { offsetInCU: 0x1FEC3, offset: 0x1FEC3, size: 0x8, addend: 0x0, symName: __ZNKSt3__113move_iteratorIPP6stringEdeB7v160006Ev, symObjAddr: 0xB184, symBinAddr: 0x10000CF58, symSize: 0x18 }
  - { offsetInCU: 0x1FEE9, offset: 0x1FEE9, size: 0x8, addend: 0x0, symName: __ZNSt3__113move_iteratorIPP6stringEppB7v160006Ev, symObjAddr: 0xB19C, symBinAddr: 0x10000CF70, symSize: 0x20 }
  - { offsetInCU: 0x1FF0F, offset: 0x1FF0F, size: 0x8, addend: 0x0, symName: __ZNSt3__114__split_bufferIP6stringRNS_9allocatorIS2_EEE21_ConstructTransactionD1B7v160006Ev, symObjAddr: 0xB1BC, symBinAddr: 0x10000CF90, symSize: 0x2C }
  - { offsetInCU: 0x1FF39, offset: 0x1FF39, size: 0x8, addend: 0x0, symName: __ZNKSt3__113move_iteratorIPP6stringE4baseB7v160006Ev, symObjAddr: 0xB260, symBinAddr: 0x10000D034, symSize: 0x18 }
  - { offsetInCU: 0x1FF5F, offset: 0x1FF5F, size: 0x8, addend: 0x0, symName: __ZNSt3__114__split_bufferIP6stringRNS_9allocatorIS2_EEE21_ConstructTransactionC2B7v160006EPPS2_m, symObjAddr: 0xB278, symBinAddr: 0x10000D04C, symSize: 0x44 }
  - { offsetInCU: 0x1FFA5, offset: 0x1FFA5, size: 0x8, addend: 0x0, symName: __ZNSt3__19allocatorIP6stringE9constructB7v160006IS2_JS2_EEEvPT_DpOT0_, symObjAddr: 0xB2BC, symBinAddr: 0x10000D090, symSize: 0x28 }
  - { offsetInCU: 0x1FFFB, offset: 0x1FFFB, size: 0x8, addend: 0x0, symName: __ZNSt3__117__compressed_pairIPP6stringRNS_9allocatorIS2_EEE6secondB7v160006Ev, symObjAddr: 0xB2E4, symBinAddr: 0x10000D0B8, symSize: 0x28 }
  - { offsetInCU: 0x20021, offset: 0x20021, size: 0x8, addend: 0x0, symName: __ZNSt3__122__compressed_pair_elemIRNS_9allocatorIP6stringEELi1ELb0EE5__getB7v160006Ev, symObjAddr: 0xB30C, symBinAddr: 0x10000D0E0, symSize: 0x18 }
  - { offsetInCU: 0x20047, offset: 0x20047, size: 0x8, addend: 0x0, symName: __ZNSt3__114__split_bufferIP6stringRNS_9allocatorIS2_EEE21_ConstructTransactionD2B7v160006Ev, symObjAddr: 0xB324, symBinAddr: 0x10000D0F8, symSize: 0x20 }
  - { offsetInCU: 0x20071, offset: 0x20071, size: 0x8, addend: 0x0, symName: __ZNSt3__113move_iteratorIPP6stringEC2B7v160006ES3_, symObjAddr: 0xB344, symBinAddr: 0x10000D118, symSize: 0x20 }
  - { offsetInCU: 0x200A9, offset: 0x200A9, size: 0x8, addend: 0x0, symName: __ZNSt3__19allocatorIP6stringE9constructB7v160006IS2_JRKS2_EEEvPT_DpOT0_, symObjAddr: 0xB364, symBinAddr: 0x10000D138, symSize: 0x28 }
  - { offsetInCU: 0x200FF, offset: 0x200FF, size: 0x8, addend: 0x0, symName: __ZNSt3__19allocatorI6stringE8allocateB7v160006Em, symObjAddr: 0xB38C, symBinAddr: 0x10000D160, symSize: 0x5C }
  - { offsetInCU: 0x2013D, offset: 0x2013D, size: 0x8, addend: 0x0, symName: __ZNSt3__116allocator_traitsINS_9allocatorI6stringEEE8max_sizeB7v160006IS3_vEEmRKS3_, symObjAddr: 0xB3E8, symBinAddr: 0x10000D1BC, symSize: 0x24 }
  - { offsetInCU: 0x2016B, offset: 0x2016B, size: 0x8, addend: 0x0, symName: __ZNKSt3__19allocatorI6stringE8max_sizeB7v160006Ev, symObjAddr: 0xB40C, symBinAddr: 0x10000D1E0, symSize: 0x18 }
  - { offsetInCU: 0x2019B, offset: 0x2019B, size: 0x8, addend: 0x0, symName: __ZNKSt3__123__move_backward_trivialclB7v160006IP6stringS3_Li0EEENS_4pairIPT_PT0_EES6_S6_S8_, symObjAddr: 0xB5A0, symBinAddr: 0x10000D374, symSize: 0x48 }
  - { offsetInCU: 0x20203, offset: 0x20203, size: 0x8, addend: 0x0, symName: __ZNSt3__14pairIPP6stringS3_EC1B7v160006IRS3_S6_LPv0EEEOT_OT0_, symObjAddr: 0xB6B4, symBinAddr: 0x10000D488, symSize: 0x3C }
  - { offsetInCU: 0x20261, offset: 0x20261, size: 0x8, addend: 0x0, symName: __ZNSt3__14pairIPP6stringS3_EC2B7v160006IRS3_S6_LPv0EEEOT_OT0_, symObjAddr: 0xB6F0, symBinAddr: 0x10000D4C4, symSize: 0x34 }
  - { offsetInCU: 0x202BF, offset: 0x202BF, size: 0x8, addend: 0x0, symName: __ZNSt3__114__split_bufferIP6stringRNS_9allocatorIS2_EEEC2EmmS5_, symObjAddr: 0xB724, symBinAddr: 0x10000D4F8, symSize: 0xD4 }
  - { offsetInCU: 0x20332, offset: 0x20332, size: 0x8, addend: 0x0, symName: __ZNSt3__117__compressed_pairIPP6stringRNS_9allocatorIS2_EEEC1B7v160006IDnS6_EEOT_OT0_, symObjAddr: 0xB7F8, symBinAddr: 0x10000D5CC, symSize: 0x3C }
  - { offsetInCU: 0x2038A, offset: 0x2038A, size: 0x8, addend: 0x0, symName: __ZNSt3__117__compressed_pairIPP6stringRNS_9allocatorIS2_EEEC2B7v160006IDnS6_EEOT_OT0_, symObjAddr: 0xB874, symBinAddr: 0x10000D648, symSize: 0x48 }
  - { offsetInCU: 0x203E2, offset: 0x203E2, size: 0x8, addend: 0x0, symName: __ZNSt3__122__compressed_pair_elemIRNS_9allocatorIP6stringEELi1ELb0EEC2B7v160006IS5_vEEOT_, symObjAddr: 0xB8BC, symBinAddr: 0x10000D690, symSize: 0x20 }
  - { offsetInCU: 0x20424, offset: 0x20424, size: 0x8, addend: 0x0, symName: __ZNSt3__19allocatorIP6stringE8allocateB7v160006Em, symObjAddr: 0xB8DC, symBinAddr: 0x10000D6B0, symSize: 0x58 }
  - { offsetInCU: 0x20462, offset: 0x20462, size: 0x8, addend: 0x0, symName: __ZNSt3__116allocator_traitsINS_9allocatorIP6stringEEE8max_sizeB7v160006IS4_vEEmRKS4_, symObjAddr: 0xB934, symBinAddr: 0x10000D708, symSize: 0x24 }
  - { offsetInCU: 0x20490, offset: 0x20490, size: 0x8, addend: 0x0, symName: __ZNKSt3__19allocatorIP6stringE8max_sizeB7v160006Ev, symObjAddr: 0xB958, symBinAddr: 0x10000D72C, symSize: 0x14 }
  - { offsetInCU: 0x204B6, offset: 0x204B6, size: 0x8, addend: 0x0, symName: __ZNSt3__122__allocator_destructorINS_9allocatorI6stringEEEC2B7v160006ERS3_m, symObjAddr: 0xB96C, symBinAddr: 0x10000D740, symSize: 0x2C }
  - { offsetInCU: 0x204FC, offset: 0x204FC, size: 0x8, addend: 0x0, symName: __ZNSt3__110unique_ptrIP6stringNS_22__allocator_destructorINS_9allocatorIS1_EEEEEC2B7v160006ILb1EvEES2_NS_16__dependent_typeINS_27__unique_ptr_deleter_sfinaeIS6_EEXT_EE20__good_rval_ref_typeE, symObjAddr: 0xB998, symBinAddr: 0x10000D76C, symSize: 0x48 }
  - { offsetInCU: 0x2054D, offset: 0x2054D, size: 0x8, addend: 0x0, symName: __ZNSt3__117__compressed_pairIP6stringNS_22__allocator_destructorINS_9allocatorIS1_EEEEEC1B7v160006IRS2_S6_EEOT_OT0_, symObjAddr: 0xB9E0, symBinAddr: 0x10000D7B4, symSize: 0x3C }
  - { offsetInCU: 0x205A5, offset: 0x205A5, size: 0x8, addend: 0x0, symName: __ZNSt3__117__compressed_pairIP6stringNS_22__allocator_destructorINS_9allocatorIS1_EEEEEC2B7v160006IRS2_S6_EEOT_OT0_, symObjAddr: 0xBA1C, symBinAddr: 0x10000D7F0, symSize: 0x48 }
  - { offsetInCU: 0x205FD, offset: 0x205FD, size: 0x8, addend: 0x0, symName: __ZNSt3__122__compressed_pair_elemIP6stringLi0ELb0EEC2B7v160006IRS2_vEEOT_, symObjAddr: 0xBA64, symBinAddr: 0x10000D838, symSize: 0x24 }
  - { offsetInCU: 0x2063F, offset: 0x2063F, size: 0x8, addend: 0x0, symName: __ZNSt3__122__compressed_pair_elemINS_22__allocator_destructorINS_9allocatorI6stringEEEELi1ELb0EEC2B7v160006IS5_vEEOT_, symObjAddr: 0xBA88, symBinAddr: 0x10000D85C, symSize: 0x24 }
  - { offsetInCU: 0x20681, offset: 0x20681, size: 0x8, addend: 0x0, symName: __ZNKSt3__117__compressed_pairIP6stringNS_22__allocator_destructorINS_9allocatorIS1_EEEEE5firstB7v160006Ev, symObjAddr: 0xBAAC, symBinAddr: 0x10000D880, symSize: 0x24 }
  - { offsetInCU: 0x206A7, offset: 0x206A7, size: 0x8, addend: 0x0, symName: __ZNKSt3__122__compressed_pair_elemIP6stringLi0ELb0EE5__getB7v160006Ev, symObjAddr: 0xBAD0, symBinAddr: 0x10000D8A4, symSize: 0x14 }
  - { offsetInCU: 0x206CD, offset: 0x206CD, size: 0x8, addend: 0x0, symName: __ZNSt3__117__compressed_pairIP6stringNS_22__allocator_destructorINS_9allocatorIS1_EEEEE5firstB7v160006Ev, symObjAddr: 0xBAE4, symBinAddr: 0x10000D8B8, symSize: 0x24 }
  - { offsetInCU: 0x206F3, offset: 0x206F3, size: 0x8, addend: 0x0, symName: __ZNSt3__122__compressed_pair_elemIP6stringLi0ELb0EE5__getB7v160006Ev, symObjAddr: 0xBB08, symBinAddr: 0x10000D8DC, symSize: 0x14 }
  - { offsetInCU: 0x20719, offset: 0x20719, size: 0x8, addend: 0x0, symName: __ZNSt3__117__compressed_pairIPP6stringNS_9allocatorIS2_EEE5firstB7v160006Ev, symObjAddr: 0xBB1C, symBinAddr: 0x10000D8F0, symSize: 0x24 }
  - { offsetInCU: 0x2073F, offset: 0x2073F, size: 0x8, addend: 0x0, symName: __ZNSt3__122__compressed_pair_elemIPP6stringLi0ELb0EE5__getB7v160006Ev, symObjAddr: 0xBB40, symBinAddr: 0x10000D914, symSize: 0x14 }
  - { offsetInCU: 0x20765, offset: 0x20765, size: 0x8, addend: 0x0, symName: __ZNSt3__117__compressed_pairIPP6stringRNS_9allocatorIS2_EEE5firstB7v160006Ev, symObjAddr: 0xBB54, symBinAddr: 0x10000D928, symSize: 0x24 }
  - { offsetInCU: 0x2078B, offset: 0x2078B, size: 0x8, addend: 0x0, symName: __ZNSt3__110unique_ptrIP6stringNS_22__allocator_destructorINS_9allocatorIS1_EEEEED2B7v160006Ev, symObjAddr: 0xBB78, symBinAddr: 0x10000D94C, symSize: 0x30 }
  - { offsetInCU: 0x207B5, offset: 0x207B5, size: 0x8, addend: 0x0, symName: __ZNSt3__110unique_ptrIP6stringNS_22__allocator_destructorINS_9allocatorIS1_EEEEE5resetB7v160006ES2_, symObjAddr: 0xBBA8, symBinAddr: 0x10000D97C, symSize: 0x78 }
  - { offsetInCU: 0x207F9, offset: 0x207F9, size: 0x8, addend: 0x0, symName: __ZNSt3__117__compressed_pairIP6stringNS_22__allocator_destructorINS_9allocatorIS1_EEEEE6secondB7v160006Ev, symObjAddr: 0xBC20, symBinAddr: 0x10000D9F4, symSize: 0x28 }
  - { offsetInCU: 0x2081F, offset: 0x2081F, size: 0x8, addend: 0x0, symName: __ZNSt3__122__allocator_destructorINS_9allocatorI6stringEEEclB7v160006EPS2_, symObjAddr: 0xBC48, symBinAddr: 0x10000DA1C, symSize: 0x34 }
  - { offsetInCU: 0x20853, offset: 0x20853, size: 0x8, addend: 0x0, symName: __ZNSt3__122__compressed_pair_elemINS_22__allocator_destructorINS_9allocatorI6stringEEEELi1ELb0EE5__getB7v160006Ev, symObjAddr: 0xBC7C, symBinAddr: 0x10000DA50, symSize: 0x14 }
  - { offsetInCU: 0x20879, offset: 0x20879, size: 0x8, addend: 0x0, symName: __ZNSt3__114__split_bufferIP6stringRNS_9allocatorIS2_EEED2Ev, symObjAddr: 0xBC90, symBinAddr: 0x10000DA64, symSize: 0x8C }
  - { offsetInCU: 0x208A5, offset: 0x208A5, size: 0x8, addend: 0x0, symName: __ZNSt3__114__split_bufferIP6stringRNS_9allocatorIS2_EEE5clearB7v160006Ev, symObjAddr: 0xBD1C, symBinAddr: 0x10000DAF0, symSize: 0x28 }
  - { offsetInCU: 0x208CB, offset: 0x208CB, size: 0x8, addend: 0x0, symName: __ZNKSt3__114__split_bufferIP6stringRNS_9allocatorIS2_EEE8capacityB7v160006Ev, symObjAddr: 0xBD44, symBinAddr: 0x10000DB18, symSize: 0x40 }
  - { offsetInCU: 0x208F1, offset: 0x208F1, size: 0x8, addend: 0x0, symName: __ZNSt3__114__split_bufferIP6stringRNS_9allocatorIS2_EEE17__destruct_at_endB7v160006EPS2_, symObjAddr: 0xBD84, symBinAddr: 0x10000DB58, symSize: 0x2C }
  - { offsetInCU: 0x20925, offset: 0x20925, size: 0x8, addend: 0x0, symName: __ZNSt3__114__split_bufferIP6stringRNS_9allocatorIS2_EEE17__destruct_at_endB7v160006EPS2_NS_17integral_constantIbLb0EEE, symObjAddr: 0xBDB0, symBinAddr: 0x10000DB84, symSize: 0x80 }
  - { offsetInCU: 0x20965, offset: 0x20965, size: 0x8, addend: 0x0, symName: __ZNKSt3__114__split_bufferIP6stringRNS_9allocatorIS2_EEE9__end_capB7v160006Ev, symObjAddr: 0xBE30, symBinAddr: 0x10000DC04, symSize: 0x28 }
  - { offsetInCU: 0x2098B, offset: 0x2098B, size: 0x8, addend: 0x0, symName: __ZNKSt3__117__compressed_pairIPP6stringRNS_9allocatorIS2_EEE5firstB7v160006Ev, symObjAddr: 0xBE58, symBinAddr: 0x10000DC2C, symSize: 0x24 }
  - { offsetInCU: 0x209B1, offset: 0x209B1, size: 0x8, addend: 0x0, symName: __ZNSt3__19allocatorI6stringE9constructB7v160006IS1_JRKS1_EEEvPT_DpOT0_, symObjAddr: 0xBE7C, symBinAddr: 0x10000DC50, symSize: 0x30 }
  - { offsetInCU: 0x20A07, offset: 0x20A07, size: 0x8, addend: 0x0, symName: __ZN6stringaSERKS_, symObjAddr: 0xBEAC, symBinAddr: 0x10000DC80, symSize: 0x110 }
  - { offsetInCU: 0x20A57, offset: 0x20A57, size: 0x8, addend: 0x0, symName: __ZNSt3__15dequeI6stringNS_9allocatorIS1_EEE5frontEv, symObjAddr: 0xBFBC, symBinAddr: 0x10000DD90, symSize: 0x58 }
  - { offsetInCU: 0x20A7F, offset: 0x20A7F, size: 0x8, addend: 0x0, symName: __ZN6stringC2ERKS_, symObjAddr: 0xC014, symBinAddr: 0x10000DDE8, symSize: 0xD4 }
  - { offsetInCU: 0x20AD3, offset: 0x20AD3, size: 0x8, addend: 0x0, symName: __ZNSt3__15dequeI6stringNS_9allocatorIS1_EEE9pop_frontEv, symObjAddr: 0xC0E8, symBinAddr: 0x10000DEBC, symSize: 0xB4 }
  - { offsetInCU: 0x20B0A, offset: 0x20B0A, size: 0x8, addend: 0x0, symName: __ZNSt3__15dequeI6stringNS_9allocatorIS1_EEE26__maybe_remove_front_spareB7v160006Eb, symObjAddr: 0xC1B0, symBinAddr: 0x10000DF84, symSize: 0xDC }
  - { offsetInCU: 0x20B3F, offset: 0x20B3F, size: 0x8, addend: 0x0, symName: __ZNKSt3__15dequeI6stringNS_9allocatorIS1_EEE20__front_spare_blocksB7v160006Ev, symObjAddr: 0xC28C, symBinAddr: 0x10000E060, symSize: 0x2C }
  - { offsetInCU: 0x20B65, offset: 0x20B65, size: 0x8, addend: 0x0, symName: __ZN13WithWriteLockD2Ev, symObjAddr: 0xC2B8, symBinAddr: 0x10000E08C, symSize: 0x38 }
  - { offsetInCU: 0x20B8F, offset: 0x20B8F, size: 0x8, addend: 0x0, symName: __ZN16ReaderWriterLock11writeUnlockEv, symObjAddr: 0xC2F0, symBinAddr: 0x10000E0C4, symSize: 0x28 }
  - { offsetInCU: 0x20BB5, offset: 0x20BB5, size: 0x8, addend: 0x0, symName: __ZN9ParsedUrlC2ERK6string, symObjAddr: 0xC318, symBinAddr: 0x10000E0EC, symSize: 0x6D4 }
  - { offsetInCU: 0x20C79, offset: 0x20C79, size: 0x8, addend: 0x0, symName: __ZN6stringC1Ev, symObjAddr: 0xC9EC, symBinAddr: 0x10000E7C0, symSize: 0x2C }
  - { offsetInCU: 0x20CA3, offset: 0x20CA3, size: 0x8, addend: 0x0, symName: __ZNK6string4findEPKc, symObjAddr: 0xCA18, symBinAddr: 0x10000E7EC, symSize: 0x19C }
  - { offsetInCU: 0x20D21, offset: 0x20D21, size: 0x8, addend: 0x0, symName: __ZNK6string4findEPKcm, symObjAddr: 0xCBB4, symBinAddr: 0x10000E988, symSize: 0x1C0 }
  - { offsetInCU: 0x20DAF, offset: 0x20DAF, size: 0x8, addend: 0x0, symName: __ZNK6string6substrEmm, symObjAddr: 0xCD74, symBinAddr: 0x10000EB48, symSize: 0xB4 }
  - { offsetInCU: 0x20DF3, offset: 0x20DF3, size: 0x8, addend: 0x0, symName: __ZNK6string2atEm, symObjAddr: 0xCE28, symBinAddr: 0x10000EBFC, symSize: 0x24 }
  - { offsetInCU: 0x20E28, offset: 0x20E28, size: 0x8, addend: 0x0, symName: __ZNK6string6lengthEv, symObjAddr: 0xCE4C, symBinAddr: 0x10000EC20, symSize: 0x18 }
  - { offsetInCU: 0x20E4E, offset: 0x20E4E, size: 0x8, addend: 0x0, symName: __ZN6stringixEm, symObjAddr: 0xCE64, symBinAddr: 0x10000EC38, symSize: 0x24 }
  - { offsetInCU: 0x20E82, offset: 0x20E82, size: 0x8, addend: 0x0, symName: __ZNK6string6substrEm, symObjAddr: 0xCE88, symBinAddr: 0x10000EC5C, symSize: 0x7C }
  - { offsetInCU: 0x20EB7, offset: 0x20EB7, size: 0x8, addend: 0x0, symName: __ZNK6stringeqERKS_, symObjAddr: 0xCF04, symBinAddr: 0x10000ECD8, symSize: 0xE4 }
  - { offsetInCU: 0x20F09, offset: 0x20F09, size: 0x8, addend: 0x0, symName: __ZN6stringC2Ev, symObjAddr: 0xCFE8, symBinAddr: 0x10000EDBC, symSize: 0x48 }
  - { offsetInCU: 0x20F33, offset: 0x20F33, size: 0x8, addend: 0x0, symName: __ZN6stringC1EPKcm, symObjAddr: 0xD030, symBinAddr: 0x10000EE04, symSize: 0x3C }
  - { offsetInCU: 0x20F79, offset: 0x20F79, size: 0x8, addend: 0x0, symName: __ZN6stringC2EPKcm, symObjAddr: 0xD06C, symBinAddr: 0x10000EE40, symSize: 0x10C }
  - { offsetInCU: 0x20FDB, offset: 0x20FDB, size: 0x8, addend: 0x0, symName: __ZN6stringD2Ev, symObjAddr: 0xD178, symBinAddr: 0x10000EF4C, symSize: 0x50 }
  - { offsetInCU: 0x21005, offset: 0x21005, size: 0x8, addend: 0x0, symName: __ZN9ParsedUrlC2ERKS_, symObjAddr: 0xD1C8, symBinAddr: 0x10000EF9C, symSize: 0x150 }
  - { offsetInCU: 0x2103A, offset: 0x2103A, size: 0x8, addend: 0x0, symName: __ZN9ParsedUrlD2Ev, symObjAddr: 0xD318, symBinAddr: 0x10000F0EC, symSize: 0x68 }
  - { offsetInCU: 0x21064, offset: 0x21064, size: 0x8, addend: 0x0, symName: __ZN14crawlerResultsC2ERK9ParsedUrlRK6vectorIcEm, symObjAddr: 0xD380, symBinAddr: 0x10000F154, symSize: 0x7C }
  - { offsetInCU: 0x210B8, offset: 0x210B8, size: 0x8, addend: 0x0, symName: __ZN6vectorIcEC1ERKS0_, symObjAddr: 0xD3FC, symBinAddr: 0x10000F1D0, symSize: 0x34 }
  - { offsetInCU: 0x210F0, offset: 0x210F0, size: 0x8, addend: 0x0, symName: __ZN6vectorIcEC2ERKS0_, symObjAddr: 0xD430, symBinAddr: 0x10000F204, symSize: 0xE0 }
  - { offsetInCU: 0x21144, offset: 0x21144, size: 0x8, addend: 0x0, symName: __ZNSt3__15queueI4TaskNS_5dequeIS1_NS_9allocatorIS1_EEEEE4pushB7v160006EOS1_, symObjAddr: 0xD510, symBinAddr: 0x10000F2E4, symSize: 0x2C }
  - { offsetInCU: 0x21179, offset: 0x21179, size: 0x8, addend: 0x0, symName: __ZNSt3__15dequeI4TaskNS_9allocatorIS1_EEE9push_backEOS1_, symObjAddr: 0xD53C, symBinAddr: 0x10000F310, symSize: 0xA0 }
  - { offsetInCU: 0x211BF, offset: 0x211BF, size: 0x8, addend: 0x0, symName: __ZNKSt3__15dequeI4TaskNS_9allocatorIS1_EEE12__back_spareB7v160006Ev, symObjAddr: 0xD5DC, symBinAddr: 0x10000F3B0, symSize: 0x54 }
  - { offsetInCU: 0x211E5, offset: 0x211E5, size: 0x8, addend: 0x0, symName: __ZNSt3__15dequeI4TaskNS_9allocatorIS1_EEE19__add_back_capacityEv, symObjAddr: 0xD630, symBinAddr: 0x10000F404, symSize: 0x314 }
  - { offsetInCU: 0x212A0, offset: 0x212A0, size: 0x8, addend: 0x0, symName: __ZNSt3__116allocator_traitsINS_9allocatorI4TaskEEE9constructB7v160006IS2_JS2_EvEEvRS3_PT_DpOT0_, symObjAddr: 0xD944, symBinAddr: 0x10000F718, symSize: 0x34 }
  - { offsetInCU: 0x212F7, offset: 0x212F7, size: 0x8, addend: 0x0, symName: __ZNKSt3__15dequeI4TaskNS_9allocatorIS1_EEE10__capacityB7v160006Ev, symObjAddr: 0xD978, symBinAddr: 0x10000F74C, symSize: 0x60 }
  - { offsetInCU: 0x2131D, offset: 0x2131D, size: 0x8, addend: 0x0, symName: __ZNSt3__114__split_bufferIP4TaskNS_9allocatorIS2_EEE9push_backB7v160006ERKS2_, symObjAddr: 0xD9D8, symBinAddr: 0x10000F7AC, symSize: 0x260 }
  - { offsetInCU: 0x21396, offset: 0x21396, size: 0x8, addend: 0x0, symName: __ZNKSt3__114__split_bufferIP4TaskNS_9allocatorIS2_EEE12__back_spareB7v160006Ev, symObjAddr: 0xDC38, symBinAddr: 0x10000FA0C, symSize: 0x40 }
  - { offsetInCU: 0x213BC, offset: 0x213BC, size: 0x8, addend: 0x0, symName: __ZNSt3__114__split_bufferIP4TaskNS_9allocatorIS2_EEE9push_backEOS2_, symObjAddr: 0xDC78, symBinAddr: 0x10000FA4C, symSize: 0x260 }
  - { offsetInCU: 0x21435, offset: 0x21435, size: 0x8, addend: 0x0, symName: __ZNSt3__116allocator_traitsINS_9allocatorI4TaskEEE8allocateB7v160006ERS3_m, symObjAddr: 0xDED8, symBinAddr: 0x10000FCAC, symSize: 0x2C }
  - { offsetInCU: 0x21468, offset: 0x21468, size: 0x8, addend: 0x0, symName: __ZNSt3__114__split_bufferIP4TaskNS_9allocatorIS2_EEE10push_frontEOS2_, symObjAddr: 0xDF04, symBinAddr: 0x10000FCD8, symSize: 0x25C }
  - { offsetInCU: 0x214E1, offset: 0x214E1, size: 0x8, addend: 0x0, symName: __ZNSt3__114__split_bufferIP4TaskRNS_9allocatorIS2_EEEC1EmmS5_, symObjAddr: 0xE160, symBinAddr: 0x10000FF34, symSize: 0x44 }
  - { offsetInCU: 0x2153C, offset: 0x2153C, size: 0x8, addend: 0x0, symName: __ZNSt3__122__allocator_destructorINS_9allocatorI4TaskEEEC1B7v160006ERS3_m, symObjAddr: 0xE1A4, symBinAddr: 0x10000FF78, symSize: 0x3C }
  - { offsetInCU: 0x215FF, offset: 0x215FF, size: 0x8, addend: 0x0, symName: __ZNSt3__110unique_ptrIP4TaskNS_22__allocator_destructorINS_9allocatorIS1_EEEEEC1B7v160006ILb1EvEES2_NS_16__dependent_typeINS_27__unique_ptr_deleter_sfinaeIS6_EEXT_EE20__good_rval_ref_typeE, symObjAddr: 0xE1E0, symBinAddr: 0x10000FFB4, symSize: 0x3C }
  - { offsetInCU: 0x21650, offset: 0x21650, size: 0x8, addend: 0x0, symName: __ZNSt3__114__split_bufferIP4TaskRNS_9allocatorIS2_EEE9push_backEOS2_, symObjAddr: 0xE21C, symBinAddr: 0x10000FFF0, symSize: 0x260 }
  - { offsetInCU: 0x216C9, offset: 0x216C9, size: 0x8, addend: 0x0, symName: __ZNKSt3__110unique_ptrIP4TaskNS_22__allocator_destructorINS_9allocatorIS1_EEEEE3getB7v160006Ev, symObjAddr: 0xE47C, symBinAddr: 0x100010250, symSize: 0x28 }
  - { offsetInCU: 0x216EF, offset: 0x216EF, size: 0x8, addend: 0x0, symName: __ZNSt3__110unique_ptrIP4TaskNS_22__allocator_destructorINS_9allocatorIS1_EEEEE7releaseB7v160006Ev, symObjAddr: 0xE4A4, symBinAddr: 0x100010278, symSize: 0x44 }
  - { offsetInCU: 0x21724, offset: 0x21724, size: 0x8, addend: 0x0, symName: __ZNSt3__114__split_bufferIP4TaskRNS_9allocatorIS2_EEE10push_frontERKS2_, symObjAddr: 0xE4E8, symBinAddr: 0x1000102BC, symSize: 0x25C }
  - { offsetInCU: 0x2179D, offset: 0x2179D, size: 0x8, addend: 0x0, symName: __ZNSt3__114__split_bufferIP4TaskNS_9allocatorIS2_EEE9__end_capB7v160006Ev, symObjAddr: 0xE780, symBinAddr: 0x100010554, symSize: 0x28 }
  - { offsetInCU: 0x217C3, offset: 0x217C3, size: 0x8, addend: 0x0, symName: __ZNSt3__114__split_bufferIP4TaskRNS_9allocatorIS2_EEE9__end_capB7v160006Ev, symObjAddr: 0xE7A8, symBinAddr: 0x10001057C, symSize: 0x28 }
  - { offsetInCU: 0x217E9, offset: 0x217E9, size: 0x8, addend: 0x0, symName: __ZNSt3__110unique_ptrIP4TaskNS_22__allocator_destructorINS_9allocatorIS1_EEEEED1B7v160006Ev, symObjAddr: 0xE7D0, symBinAddr: 0x1000105A4, symSize: 0x2C }
  - { offsetInCU: 0x21813, offset: 0x21813, size: 0x8, addend: 0x0, symName: __ZNSt3__114__split_bufferIP4TaskRNS_9allocatorIS2_EEED1Ev, symObjAddr: 0xE7FC, symBinAddr: 0x1000105D0, symSize: 0x2C }
  - { offsetInCU: 0x2183F, offset: 0x2183F, size: 0x8, addend: 0x0, symName: __ZNSt3__114__split_bufferIP4TaskRNS_9allocatorIS2_EEE18__construct_at_endINS_13move_iteratorIPS2_EEEENS_9enable_ifIXsr27__is_cpp17_forward_iteratorIT_EE5valueEvE4typeESC_SC_, symObjAddr: 0xE868, symBinAddr: 0x10001063C, symSize: 0xFC }
  - { offsetInCU: 0x2189B, offset: 0x2189B, size: 0x8, addend: 0x0, symName: __ZNSt3__113move_iteratorIPP4TaskEC1B7v160006ES3_, symObjAddr: 0xE964, symBinAddr: 0x100010738, symSize: 0x34 }
  - { offsetInCU: 0x218D3, offset: 0x218D3, size: 0x8, addend: 0x0, symName: __ZNSt3__116allocator_traitsINS_9allocatorIP4TaskEEE9constructB7v160006IS3_JRKS3_EvEEvRS4_PT_DpOT0_, symObjAddr: 0xE998, symBinAddr: 0x10001076C, symSize: 0x34 }
  - { offsetInCU: 0x21943, offset: 0x21943, size: 0x8, addend: 0x0, symName: __ZNKSt3__114__move_trivialclB7v160006IP4TaskS3_Li0EEENS_4pairIPT_PT0_EES6_S6_S8_, symObjAddr: 0xEB68, symBinAddr: 0x10001093C, symSize: 0x48 }
  - { offsetInCU: 0x219B0, offset: 0x219B0, size: 0x8, addend: 0x0, symName: __ZNSt3__14pairIPP4TaskS3_EC1B7v160006IRS3_S3_LPv0EEEOT_OT0_, symObjAddr: 0xED30, symBinAddr: 0x100010B04, symSize: 0x3C }
  - { offsetInCU: 0x21A0E, offset: 0x21A0E, size: 0x8, addend: 0x0, symName: __ZNSt3__14pairIPP4TaskS3_EC2B7v160006IRS3_S3_LPv0EEEOT_OT0_, symObjAddr: 0xED6C, symBinAddr: 0x100010B40, symSize: 0x34 }
  - { offsetInCU: 0x21A6C, offset: 0x21A6C, size: 0x8, addend: 0x0, symName: __ZNSt3__118__unwrap_iter_implIPP4TaskLb1EE8__unwrapB7v160006ES3_, symObjAddr: 0xEDA0, symBinAddr: 0x100010B74, symSize: 0x24 }
  - { offsetInCU: 0x21A8F, offset: 0x21A8F, size: 0x8, addend: 0x0, symName: __ZNSt3__14pairIPP4TaskS3_EC1B7v160006IS3_S3_LPv0EEEOT_OT0_, symObjAddr: 0xEDC4, symBinAddr: 0x100010B98, symSize: 0x3C }
  - { offsetInCU: 0x21AED, offset: 0x21AED, size: 0x8, addend: 0x0, symName: __ZNSt3__14pairIPP4TaskS3_EC2B7v160006IS3_S3_LPv0EEEOT_OT0_, symObjAddr: 0xEE00, symBinAddr: 0x100010BD4, symSize: 0x34 }
  - { offsetInCU: 0x21B4B, offset: 0x21B4B, size: 0x8, addend: 0x0, symName: __ZNSt3__118__unwrap_iter_implIPP4TaskLb1EE8__rewrapB7v160006ES3_S3_, symObjAddr: 0xEE34, symBinAddr: 0x100010C08, symSize: 0x50 }
  - { offsetInCU: 0x21B86, offset: 0x21B86, size: 0x8, addend: 0x0, symName: __ZNSt3__114__split_bufferIP4TaskRNS_9allocatorIS2_EEE21_ConstructTransactionC1B7v160006EPPS2_m, symObjAddr: 0xEEC0, symBinAddr: 0x100010C94, symSize: 0x3C }
  - { offsetInCU: 0x21BCC, offset: 0x21BCC, size: 0x8, addend: 0x0, symName: __ZNSt3__116allocator_traitsINS_9allocatorIP4TaskEEE9constructB7v160006IS3_JS3_EvEEvRS4_PT_DpOT0_, symObjAddr: 0xEEFC, symBinAddr: 0x100010CD0, symSize: 0x34 }
  - { offsetInCU: 0x21C23, offset: 0x21C23, size: 0x8, addend: 0x0, symName: __ZNSt3__114__split_bufferIP4TaskRNS_9allocatorIS2_EEE7__allocB7v160006Ev, symObjAddr: 0xEF30, symBinAddr: 0x100010D04, symSize: 0x28 }
  - { offsetInCU: 0x21C49, offset: 0x21C49, size: 0x8, addend: 0x0, symName: __ZNKSt3__113move_iteratorIPP4TaskEdeB7v160006Ev, symObjAddr: 0xEF58, symBinAddr: 0x100010D2C, symSize: 0x18 }
  - { offsetInCU: 0x21C6F, offset: 0x21C6F, size: 0x8, addend: 0x0, symName: __ZNSt3__113move_iteratorIPP4TaskEppB7v160006Ev, symObjAddr: 0xEF70, symBinAddr: 0x100010D44, symSize: 0x20 }
  - { offsetInCU: 0x21C95, offset: 0x21C95, size: 0x8, addend: 0x0, symName: __ZNSt3__114__split_bufferIP4TaskRNS_9allocatorIS2_EEE21_ConstructTransactionD1B7v160006Ev, symObjAddr: 0xEF90, symBinAddr: 0x100010D64, symSize: 0x2C }
  - { offsetInCU: 0x21CBF, offset: 0x21CBF, size: 0x8, addend: 0x0, symName: __ZNKSt3__113move_iteratorIPP4TaskE4baseB7v160006Ev, symObjAddr: 0xF034, symBinAddr: 0x100010E08, symSize: 0x18 }
  - { offsetInCU: 0x21CE5, offset: 0x21CE5, size: 0x8, addend: 0x0, symName: __ZNSt3__114__split_bufferIP4TaskRNS_9allocatorIS2_EEE21_ConstructTransactionC2B7v160006EPPS2_m, symObjAddr: 0xF04C, symBinAddr: 0x100010E20, symSize: 0x44 }
  - { offsetInCU: 0x21D2B, offset: 0x21D2B, size: 0x8, addend: 0x0, symName: __ZNSt3__19allocatorIP4TaskE9constructB7v160006IS2_JS2_EEEvPT_DpOT0_, symObjAddr: 0xF090, symBinAddr: 0x100010E64, symSize: 0x28 }
  - { offsetInCU: 0x21D81, offset: 0x21D81, size: 0x8, addend: 0x0, symName: __ZNSt3__117__compressed_pairIPP4TaskRNS_9allocatorIS2_EEE6secondB7v160006Ev, symObjAddr: 0xF0B8, symBinAddr: 0x100010E8C, symSize: 0x28 }
  - { offsetInCU: 0x21DA7, offset: 0x21DA7, size: 0x8, addend: 0x0, symName: __ZNSt3__122__compressed_pair_elemIRNS_9allocatorIP4TaskEELi1ELb0EE5__getB7v160006Ev, symObjAddr: 0xF0E0, symBinAddr: 0x100010EB4, symSize: 0x18 }
  - { offsetInCU: 0x21DCD, offset: 0x21DCD, size: 0x8, addend: 0x0, symName: __ZNSt3__114__split_bufferIP4TaskRNS_9allocatorIS2_EEE21_ConstructTransactionD2B7v160006Ev, symObjAddr: 0xF0F8, symBinAddr: 0x100010ECC, symSize: 0x20 }
  - { offsetInCU: 0x21DF7, offset: 0x21DF7, size: 0x8, addend: 0x0, symName: __ZNSt3__113move_iteratorIPP4TaskEC2B7v160006ES3_, symObjAddr: 0xF118, symBinAddr: 0x100010EEC, symSize: 0x20 }
  - { offsetInCU: 0x21E2F, offset: 0x21E2F, size: 0x8, addend: 0x0, symName: __ZNSt3__19allocatorIP4TaskE9constructB7v160006IS2_JRKS2_EEEvPT_DpOT0_, symObjAddr: 0xF138, symBinAddr: 0x100010F0C, symSize: 0x28 }
  - { offsetInCU: 0x21E85, offset: 0x21E85, size: 0x8, addend: 0x0, symName: __ZNSt3__19allocatorI4TaskE8allocateB7v160006Em, symObjAddr: 0xF160, symBinAddr: 0x100010F34, symSize: 0x58 }
  - { offsetInCU: 0x21EC3, offset: 0x21EC3, size: 0x8, addend: 0x0, symName: __ZNSt3__116allocator_traitsINS_9allocatorI4TaskEEE8max_sizeB7v160006IS3_vEEmRKS3_, symObjAddr: 0xF1B8, symBinAddr: 0x100010F8C, symSize: 0x24 }
  - { offsetInCU: 0x21EF1, offset: 0x21EF1, size: 0x8, addend: 0x0, symName: __ZNKSt3__19allocatorI4TaskE8max_sizeB7v160006Ev, symObjAddr: 0xF1DC, symBinAddr: 0x100010FB0, symSize: 0x14 }
  - { offsetInCU: 0x21F17, offset: 0x21F17, size: 0x8, addend: 0x0, symName: __ZNKSt3__123__move_backward_trivialclB7v160006IP4TaskS3_Li0EEENS_4pairIPT_PT0_EES6_S6_S8_, symObjAddr: 0xF36C, symBinAddr: 0x100011140, symSize: 0x48 }
  - { offsetInCU: 0x21F7F, offset: 0x21F7F, size: 0x8, addend: 0x0, symName: __ZNSt3__14pairIPP4TaskS3_EC1B7v160006IRS3_S6_LPv0EEEOT_OT0_, symObjAddr: 0xF480, symBinAddr: 0x100011254, symSize: 0x3C }
  - { offsetInCU: 0x21FDD, offset: 0x21FDD, size: 0x8, addend: 0x0, symName: __ZNSt3__14pairIPP4TaskS3_EC2B7v160006IRS3_S6_LPv0EEEOT_OT0_, symObjAddr: 0xF4BC, symBinAddr: 0x100011290, symSize: 0x34 }
  - { offsetInCU: 0x2203B, offset: 0x2203B, size: 0x8, addend: 0x0, symName: __ZNSt3__114__split_bufferIP4TaskRNS_9allocatorIS2_EEEC2EmmS5_, symObjAddr: 0xF4F0, symBinAddr: 0x1000112C4, symSize: 0xD4 }
  - { offsetInCU: 0x220AE, offset: 0x220AE, size: 0x8, addend: 0x0, symName: __ZNSt3__117__compressed_pairIPP4TaskRNS_9allocatorIS2_EEEC1B7v160006IDnS6_EEOT_OT0_, symObjAddr: 0xF5C4, symBinAddr: 0x100011398, symSize: 0x3C }
  - { offsetInCU: 0x22106, offset: 0x22106, size: 0x8, addend: 0x0, symName: __ZNSt3__117__compressed_pairIPP4TaskRNS_9allocatorIS2_EEEC2B7v160006IDnS6_EEOT_OT0_, symObjAddr: 0xF640, symBinAddr: 0x100011414, symSize: 0x48 }
  - { offsetInCU: 0x2215E, offset: 0x2215E, size: 0x8, addend: 0x0, symName: __ZNSt3__122__compressed_pair_elemIRNS_9allocatorIP4TaskEELi1ELb0EEC2B7v160006IS5_vEEOT_, symObjAddr: 0xF688, symBinAddr: 0x10001145C, symSize: 0x20 }
  - { offsetInCU: 0x221A0, offset: 0x221A0, size: 0x8, addend: 0x0, symName: __ZNSt3__19allocatorIP4TaskE8allocateB7v160006Em, symObjAddr: 0xF6A8, symBinAddr: 0x10001147C, symSize: 0x58 }
  - { offsetInCU: 0x221DE, offset: 0x221DE, size: 0x8, addend: 0x0, symName: __ZNSt3__116allocator_traitsINS_9allocatorIP4TaskEEE8max_sizeB7v160006IS4_vEEmRKS4_, symObjAddr: 0xF700, symBinAddr: 0x1000114D4, symSize: 0x24 }
  - { offsetInCU: 0x2220C, offset: 0x2220C, size: 0x8, addend: 0x0, symName: __ZNKSt3__19allocatorIP4TaskE8max_sizeB7v160006Ev, symObjAddr: 0xF724, symBinAddr: 0x1000114F8, symSize: 0x14 }
  - { offsetInCU: 0x22232, offset: 0x22232, size: 0x8, addend: 0x0, symName: __ZNSt3__122__allocator_destructorINS_9allocatorI4TaskEEEC2B7v160006ERS3_m, symObjAddr: 0xF738, symBinAddr: 0x10001150C, symSize: 0x2C }
  - { offsetInCU: 0x22278, offset: 0x22278, size: 0x8, addend: 0x0, symName: __ZNSt3__110unique_ptrIP4TaskNS_22__allocator_destructorINS_9allocatorIS1_EEEEEC2B7v160006ILb1EvEES2_NS_16__dependent_typeINS_27__unique_ptr_deleter_sfinaeIS6_EEXT_EE20__good_rval_ref_typeE, symObjAddr: 0xF764, symBinAddr: 0x100011538, symSize: 0x48 }
  - { offsetInCU: 0x222C9, offset: 0x222C9, size: 0x8, addend: 0x0, symName: __ZNSt3__117__compressed_pairIP4TaskNS_22__allocator_destructorINS_9allocatorIS1_EEEEEC1B7v160006IRS2_S6_EEOT_OT0_, symObjAddr: 0xF7AC, symBinAddr: 0x100011580, symSize: 0x3C }
  - { offsetInCU: 0x22321, offset: 0x22321, size: 0x8, addend: 0x0, symName: __ZNSt3__117__compressed_pairIP4TaskNS_22__allocator_destructorINS_9allocatorIS1_EEEEEC2B7v160006IRS2_S6_EEOT_OT0_, symObjAddr: 0xF7E8, symBinAddr: 0x1000115BC, symSize: 0x48 }
  - { offsetInCU: 0x22379, offset: 0x22379, size: 0x8, addend: 0x0, symName: __ZNSt3__122__compressed_pair_elemIP4TaskLi0ELb0EEC2B7v160006IRS2_vEEOT_, symObjAddr: 0xF830, symBinAddr: 0x100011604, symSize: 0x24 }
  - { offsetInCU: 0x223BB, offset: 0x223BB, size: 0x8, addend: 0x0, symName: __ZNSt3__122__compressed_pair_elemINS_22__allocator_destructorINS_9allocatorI4TaskEEEELi1ELb0EEC2B7v160006IS5_vEEOT_, symObjAddr: 0xF854, symBinAddr: 0x100011628, symSize: 0x24 }
  - { offsetInCU: 0x223FD, offset: 0x223FD, size: 0x8, addend: 0x0, symName: __ZNKSt3__117__compressed_pairIP4TaskNS_22__allocator_destructorINS_9allocatorIS1_EEEEE5firstB7v160006Ev, symObjAddr: 0xF878, symBinAddr: 0x10001164C, symSize: 0x24 }
  - { offsetInCU: 0x22423, offset: 0x22423, size: 0x8, addend: 0x0, symName: __ZNKSt3__122__compressed_pair_elemIP4TaskLi0ELb0EE5__getB7v160006Ev, symObjAddr: 0xF89C, symBinAddr: 0x100011670, symSize: 0x14 }
  - { offsetInCU: 0x22449, offset: 0x22449, size: 0x8, addend: 0x0, symName: __ZNSt3__117__compressed_pairIP4TaskNS_22__allocator_destructorINS_9allocatorIS1_EEEEE5firstB7v160006Ev, symObjAddr: 0xF8B0, symBinAddr: 0x100011684, symSize: 0x24 }
  - { offsetInCU: 0x2246F, offset: 0x2246F, size: 0x8, addend: 0x0, symName: __ZNSt3__122__compressed_pair_elemIP4TaskLi0ELb0EE5__getB7v160006Ev, symObjAddr: 0xF8D4, symBinAddr: 0x1000116A8, symSize: 0x14 }
  - { offsetInCU: 0x22495, offset: 0x22495, size: 0x8, addend: 0x0, symName: __ZNSt3__117__compressed_pairIPP4TaskNS_9allocatorIS2_EEE5firstB7v160006Ev, symObjAddr: 0xF8E8, symBinAddr: 0x1000116BC, symSize: 0x24 }
  - { offsetInCU: 0x224BB, offset: 0x224BB, size: 0x8, addend: 0x0, symName: __ZNSt3__122__compressed_pair_elemIPP4TaskLi0ELb0EE5__getB7v160006Ev, symObjAddr: 0xF90C, symBinAddr: 0x1000116E0, symSize: 0x14 }
  - { offsetInCU: 0x224E1, offset: 0x224E1, size: 0x8, addend: 0x0, symName: __ZNSt3__117__compressed_pairIPP4TaskRNS_9allocatorIS2_EEE5firstB7v160006Ev, symObjAddr: 0xF920, symBinAddr: 0x1000116F4, symSize: 0x24 }
  - { offsetInCU: 0x22507, offset: 0x22507, size: 0x8, addend: 0x0, symName: __ZNSt3__110unique_ptrIP4TaskNS_22__allocator_destructorINS_9allocatorIS1_EEEEED2B7v160006Ev, symObjAddr: 0xF944, symBinAddr: 0x100011718, symSize: 0x30 }
  - { offsetInCU: 0x22531, offset: 0x22531, size: 0x8, addend: 0x0, symName: __ZNSt3__110unique_ptrIP4TaskNS_22__allocator_destructorINS_9allocatorIS1_EEEEE5resetB7v160006ES2_, symObjAddr: 0xF974, symBinAddr: 0x100011748, symSize: 0x78 }
  - { offsetInCU: 0x22575, offset: 0x22575, size: 0x8, addend: 0x0, symName: __ZNSt3__117__compressed_pairIP4TaskNS_22__allocator_destructorINS_9allocatorIS1_EEEEE6secondB7v160006Ev, symObjAddr: 0xF9EC, symBinAddr: 0x1000117C0, symSize: 0x28 }
  - { offsetInCU: 0x2259B, offset: 0x2259B, size: 0x8, addend: 0x0, symName: __ZNSt3__122__allocator_destructorINS_9allocatorI4TaskEEEclB7v160006EPS2_, symObjAddr: 0xFA14, symBinAddr: 0x1000117E8, symSize: 0x34 }
  - { offsetInCU: 0x225CF, offset: 0x225CF, size: 0x8, addend: 0x0, symName: __ZNSt3__122__compressed_pair_elemINS_22__allocator_destructorINS_9allocatorI4TaskEEEELi1ELb0EE5__getB7v160006Ev, symObjAddr: 0xFA48, symBinAddr: 0x10001181C, symSize: 0x14 }
  - { offsetInCU: 0x225F5, offset: 0x225F5, size: 0x8, addend: 0x0, symName: __ZNSt3__114__split_bufferIP4TaskRNS_9allocatorIS2_EEED2Ev, symObjAddr: 0xFA5C, symBinAddr: 0x100011830, symSize: 0x8C }
  - { offsetInCU: 0x22621, offset: 0x22621, size: 0x8, addend: 0x0, symName: __ZNSt3__114__split_bufferIP4TaskRNS_9allocatorIS2_EEE5clearB7v160006Ev, symObjAddr: 0xFAE8, symBinAddr: 0x1000118BC, symSize: 0x28 }
  - { offsetInCU: 0x22647, offset: 0x22647, size: 0x8, addend: 0x0, symName: __ZNKSt3__114__split_bufferIP4TaskRNS_9allocatorIS2_EEE8capacityB7v160006Ev, symObjAddr: 0xFB10, symBinAddr: 0x1000118E4, symSize: 0x40 }
  - { offsetInCU: 0x2266D, offset: 0x2266D, size: 0x8, addend: 0x0, symName: __ZNSt3__114__split_bufferIP4TaskRNS_9allocatorIS2_EEE17__destruct_at_endB7v160006EPS2_, symObjAddr: 0xFB50, symBinAddr: 0x100011924, symSize: 0x2C }
  - { offsetInCU: 0x226A1, offset: 0x226A1, size: 0x8, addend: 0x0, symName: __ZNSt3__114__split_bufferIP4TaskRNS_9allocatorIS2_EEE17__destruct_at_endB7v160006EPS2_NS_17integral_constantIbLb0EEE, symObjAddr: 0xFB7C, symBinAddr: 0x100011950, symSize: 0x80 }
  - { offsetInCU: 0x226E1, offset: 0x226E1, size: 0x8, addend: 0x0, symName: __ZNKSt3__114__split_bufferIP4TaskRNS_9allocatorIS2_EEE9__end_capB7v160006Ev, symObjAddr: 0xFBFC, symBinAddr: 0x1000119D0, symSize: 0x28 }
  - { offsetInCU: 0x22707, offset: 0x22707, size: 0x8, addend: 0x0, symName: __ZNKSt3__117__compressed_pairIPP4TaskRNS_9allocatorIS2_EEE5firstB7v160006Ev, symObjAddr: 0xFC24, symBinAddr: 0x1000119F8, symSize: 0x24 }
  - { offsetInCU: 0x2272D, offset: 0x2272D, size: 0x8, addend: 0x0, symName: __ZNSt3__19allocatorI4TaskE9constructB7v160006IS1_JS1_EEEvPT_DpOT0_, symObjAddr: 0xFC48, symBinAddr: 0x100011A1C, symSize: 0x28 }
  - { offsetInCU: 0x22783, offset: 0x22783, size: 0x8, addend: 0x0, symName: __ZN14crawlerResultsD2Ev, symObjAddr: 0xFC70, symBinAddr: 0x100011A44, symSize: 0x38 }
  - { offsetInCU: 0x227AF, offset: 0x227AF, size: 0x8, addend: 0x0, symName: __ZN11Bloomfilter8containsERK6string, symObjAddr: 0xFCA8, symBinAddr: 0x100011A7C, symSize: 0xF4 }
  - { offsetInCU: 0x22829, offset: 0x22829, size: 0x8, addend: 0x0, symName: __ZN8UrlQueue6addUrlERK6string, symObjAddr: 0xFD9C, symBinAddr: 0x100011B70, symSize: 0x2C }
  - { offsetInCU: 0x2285D, offset: 0x2285D, size: 0x8, addend: 0x0, symName: __ZN11Bloomfilter6insertERK6string, symObjAddr: 0xFDC8, symBinAddr: 0x100011B9C, symSize: 0xD8 }
  - { offsetInCU: 0x228D7, offset: 0x228D7, size: 0x8, addend: 0x0, symName: __ZN11Bloomfilter4hashERK6string, symObjAddr: 0xFEA0, symBinAddr: 0x100011C74, symSize: 0xB8 }
  - { offsetInCU: 0x22935, offset: 0x22935, size: 0x8, addend: 0x0, symName: __ZNSt3__16vectorIbNS_9allocatorIbEEEixB7v160006Em, symObjAddr: 0xFF58, symBinAddr: 0x100011D2C, symSize: 0x3C }
  - { offsetInCU: 0x2296A, offset: 0x2296A, size: 0x8, addend: 0x0, symName: __ZNKSt3__115__bit_referenceINS_6vectorIbNS_9allocatorIbEEEELb1EEcvbB7v160006Ev, symObjAddr: 0xFF94, symBinAddr: 0x100011D68, symSize: 0x2C }
  - { offsetInCU: 0x22990, offset: 0x22990, size: 0x8, addend: 0x0, symName: __ZNK6string5c_strEv, symObjAddr: 0xFFC0, symBinAddr: 0x100011D94, symSize: 0x18 }
  - { offsetInCU: 0x229BB, offset: 0x229BB, size: 0x8, addend: 0x0, symName: __ZNSt3__14pairIyyEC1B7v160006IRyS3_LPv0EEEOT_OT0_, symObjAddr: 0xFFD8, symBinAddr: 0x100011DAC, symSize: 0x3C }
  - { offsetInCU: 0x22A19, offset: 0x22A19, size: 0x8, addend: 0x0, symName: __ZNSt3__14pairIyyEC2B7v160006IRyS3_LPv0EEEOT_OT0_, symObjAddr: 0x10014, symBinAddr: 0x100011DE8, symSize: 0x34 }
  - { offsetInCU: 0x22A77, offset: 0x22A77, size: 0x8, addend: 0x0, symName: __ZNSt3__16vectorIbNS_9allocatorIbEEE10__make_refB7v160006Em, symObjAddr: 0x10048, symBinAddr: 0x100011E1C, symSize: 0x60 }
  - { offsetInCU: 0x22AAC, offset: 0x22AAC, size: 0x8, addend: 0x0, symName: __ZNSt3__115__bit_referenceINS_6vectorIbNS_9allocatorIbEEEELb1EEC1B7v160006EPmm, symObjAddr: 0x100A8, symBinAddr: 0x100011E7C, symSize: 0x3C }
  - { offsetInCU: 0x22AF2, offset: 0x22AF2, size: 0x8, addend: 0x0, symName: __ZNSt3__115__bit_referenceINS_6vectorIbNS_9allocatorIbEEEELb1EEC2B7v160006EPmm, symObjAddr: 0x100E4, symBinAddr: 0x100011EB8, symSize: 0x2C }
  - { offsetInCU: 0x22B38, offset: 0x22B38, size: 0x8, addend: 0x0, symName: __ZN6vectorI6stringE9push_backERKS0_, symObjAddr: 0x10110, symBinAddr: 0x100011EE4, symSize: 0xB4 }
  - { offsetInCU: 0x22B6C, offset: 0x22B6C, size: 0x8, addend: 0x0, symName: __ZN6vectorI6stringE7reserveEm, symObjAddr: 0x101C4, symBinAddr: 0x100011F98, symSize: 0x274 }
  - { offsetInCU: 0x22BD1, offset: 0x22BD1, size: 0x8, addend: 0x0, symName: __ZNSt3__115__bit_referenceINS_6vectorIbNS_9allocatorIbEEEELb1EEaSB7v160006Eb, symObjAddr: 0x10438, symBinAddr: 0x10001220C, symSize: 0x6C }
  - { offsetInCU: 0x22C41, offset: 0x22C41, size: 0x8, addend: 0x0, symName: __ZN12WithReadLockC1ER16ReaderWriterLock, symObjAddr: 0x104A4, symBinAddr: 0x100012278, symSize: 0x34 }
  - { offsetInCU: 0x22C79, offset: 0x22C79, size: 0x8, addend: 0x0, symName: __ZN12WithReadLockD1Ev, symObjAddr: 0x104D8, symBinAddr: 0x1000122AC, symSize: 0x2C }
  - { offsetInCU: 0x22CA3, offset: 0x22CA3, size: 0x8, addend: 0x0, symName: __ZN12WithReadLockC2ER16ReaderWriterLock, symObjAddr: 0x10504, symBinAddr: 0x1000122D8, symSize: 0x3C }
  - { offsetInCU: 0x22CDB, offset: 0x22CDB, size: 0x8, addend: 0x0, symName: __ZN16ReaderWriterLock8readLockEv, symObjAddr: 0x10540, symBinAddr: 0x100012314, symSize: 0x6C }
  - { offsetInCU: 0x22D01, offset: 0x22D01, size: 0x8, addend: 0x0, symName: __ZN12WithReadLockD2Ev, symObjAddr: 0x105AC, symBinAddr: 0x100012380, symSize: 0x38 }
  - { offsetInCU: 0x22D2B, offset: 0x22D2B, size: 0x8, addend: 0x0, symName: __ZN16ReaderWriterLock10readUnlockEv, symObjAddr: 0x105E4, symBinAddr: 0x1000123B8, symSize: 0x6C }
  - { offsetInCU: 0x22D51, offset: 0x22D51, size: 0x8, addend: 0x0, symName: __ZN10HtmlParserD2Ev, symObjAddr: 0x10650, symBinAddr: 0x100012424, symSize: 0x5C }
  - { offsetInCU: 0x22D7D, offset: 0x22D7D, size: 0x8, addend: 0x0, symName: __ZN6vectorI4LinkED1Ev, symObjAddr: 0x106AC, symBinAddr: 0x100012480, symSize: 0x2C }
  - { offsetInCU: 0x22DA7, offset: 0x22DA7, size: 0x8, addend: 0x0, symName: __ZN6vectorI4LinkED2Ev, symObjAddr: 0x106D8, symBinAddr: 0x1000124AC, symSize: 0xB0 }
  - { offsetInCU: 0x22DD1, offset: 0x22DD1, size: 0x8, addend: 0x0, symName: __ZN4LinkD1Ev, symObjAddr: 0x10788, symBinAddr: 0x10001255C, symSize: 0x2C }
  - { offsetInCU: 0x22DFD, offset: 0x22DFD, size: 0x8, addend: 0x0, symName: __ZN4LinkD2Ev, symObjAddr: 0x107B4, symBinAddr: 0x100012588, symSize: 0x38 }
  - { offsetInCU: 0x22E29, offset: 0x22E29, size: 0x8, addend: 0x0, symName: __ZN6stringC2EPKc, symObjAddr: 0x107EC, symBinAddr: 0x1000125C0, symSize: 0x13C }
  - { offsetInCU: 0x22E99, offset: 0x22E99, size: 0x8, addend: 0x0, symName: __ZNKSt3__19basic_iosIcNS_11char_traitsIcEEE5widenB7v160006Ec, symObjAddr: 0x10928, symBinAddr: 0x1000126FC, symSize: 0x84 }
  - { offsetInCU: 0x22F02, offset: 0x22F02, size: 0x8, addend: 0x0, symName: __ZNKSt3__15ctypeIcE5widenB7v160006Ec, symObjAddr: 0x109D8, symBinAddr: 0x1000127AC, symSize: 0x38 }
  - { offsetInCU: 0x22F37, offset: 0x22F37, size: 0x8, addend: 0x0, symName: __ZN6vectorIcED2Ev, symObjAddr: 0x10A10, symBinAddr: 0x1000127E4, symSize: 0x50 }
  - { offsetInCU: 0x22F61, offset: 0x22F61, size: 0x8, addend: 0x0, symName: __ZN15ThreadSafeQueueI14crawlerResultsEC2Ev, symObjAddr: 0x10A60, symBinAddr: 0x100012834, symSize: 0x78 }
  - { offsetInCU: 0x22F8B, offset: 0x22F8B, size: 0x8, addend: 0x0, symName: __ZNSt3__15queueI14crawlerResultsNS_5dequeIS1_NS_9allocatorIS1_EEEEEC1B7v160006Ev, symObjAddr: 0x10AD8, symBinAddr: 0x1000128AC, symSize: 0x2C }
  - { offsetInCU: 0x22FB5, offset: 0x22FB5, size: 0x8, addend: 0x0, symName: __ZNSt3__15queueI14crawlerResultsNS_5dequeIS1_NS_9allocatorIS1_EEEEED1Ev, symObjAddr: 0x10B04, symBinAddr: 0x1000128D8, symSize: 0x2C }
  - { offsetInCU: 0x22FE2, offset: 0x22FE2, size: 0x8, addend: 0x0, symName: __ZNSt3__15queueI14crawlerResultsNS_5dequeIS1_NS_9allocatorIS1_EEEEEC2B7v160006Ev, symObjAddr: 0x10B30, symBinAddr: 0x100012904, symSize: 0x2C }
  - { offsetInCU: 0x2300C, offset: 0x2300C, size: 0x8, addend: 0x0, symName: __ZNSt3__15dequeI14crawlerResultsNS_9allocatorIS1_EEEC1B7v160006Ev, symObjAddr: 0x10B5C, symBinAddr: 0x100012930, symSize: 0x2C }
  - { offsetInCU: 0x23036, offset: 0x23036, size: 0x8, addend: 0x0, symName: __ZNSt3__15dequeI14crawlerResultsNS_9allocatorIS1_EEEC2B7v160006Ev, symObjAddr: 0x10B88, symBinAddr: 0x10001295C, symSize: 0x50 }
  - { offsetInCU: 0x23060, offset: 0x23060, size: 0x8, addend: 0x0, symName: __ZNSt3__114__split_bufferIP14crawlerResultsNS_9allocatorIS2_EEEC1Ev, symObjAddr: 0x10BD8, symBinAddr: 0x1000129AC, symSize: 0x2C }
  - { offsetInCU: 0x2308C, offset: 0x2308C, size: 0x8, addend: 0x0, symName: __ZNSt3__117__compressed_pairImNS_9allocatorI14crawlerResultsEEEC1B7v160006IiNS_18__default_init_tagEEEOT_OT0_, symObjAddr: 0x10C04, symBinAddr: 0x1000129D8, symSize: 0x3C }
  - { offsetInCU: 0x230E4, offset: 0x230E4, size: 0x8, addend: 0x0, symName: __ZNSt3__114__split_bufferIP14crawlerResultsNS_9allocatorIS2_EEEC2Ev, symObjAddr: 0x10C40, symBinAddr: 0x100012A14, symSize: 0x50 }
  - { offsetInCU: 0x23110, offset: 0x23110, size: 0x8, addend: 0x0, symName: __ZNSt3__117__compressed_pairIPP14crawlerResultsNS_9allocatorIS2_EEEC1B7v160006IDnNS_18__default_init_tagEEEOT_OT0_, symObjAddr: 0x10C90, symBinAddr: 0x100012A64, symSize: 0x3C }
  - { offsetInCU: 0x23168, offset: 0x23168, size: 0x8, addend: 0x0, symName: __ZNSt3__117__compressed_pairIPP14crawlerResultsNS_9allocatorIS2_EEEC2B7v160006IDnNS_18__default_init_tagEEEOT_OT0_, symObjAddr: 0x10CCC, symBinAddr: 0x100012AA0, symSize: 0x40 }
  - { offsetInCU: 0x231C0, offset: 0x231C0, size: 0x8, addend: 0x0, symName: __ZNSt3__122__compressed_pair_elemIPP14crawlerResultsLi0ELb0EEC2B7v160006IDnvEEOT_, symObjAddr: 0x10D0C, symBinAddr: 0x100012AE0, symSize: 0x1C }
  - { offsetInCU: 0x23202, offset: 0x23202, size: 0x8, addend: 0x0, symName: __ZNSt3__122__compressed_pair_elemINS_9allocatorIP14crawlerResultsEELi1ELb1EEC2B7v160006ENS_18__default_init_tagE, symObjAddr: 0x10D28, symBinAddr: 0x100012AFC, symSize: 0x2C }
  - { offsetInCU: 0x23236, offset: 0x23236, size: 0x8, addend: 0x0, symName: __ZNSt3__19allocatorIP14crawlerResultsEC2B7v160006Ev, symObjAddr: 0x10D54, symBinAddr: 0x100012B28, symSize: 0x2C }
  - { offsetInCU: 0x23260, offset: 0x23260, size: 0x8, addend: 0x0, symName: __ZNSt3__116__non_trivial_ifILb1ENS_9allocatorIP14crawlerResultsEEEC2B7v160006Ev, symObjAddr: 0x10D80, symBinAddr: 0x100012B54, symSize: 0x14 }
  - { offsetInCU: 0x2328A, offset: 0x2328A, size: 0x8, addend: 0x0, symName: __ZNSt3__117__compressed_pairImNS_9allocatorI14crawlerResultsEEEC2B7v160006IiNS_18__default_init_tagEEEOT_OT0_, symObjAddr: 0x10D94, symBinAddr: 0x100012B68, symSize: 0x40 }
  - { offsetInCU: 0x232E2, offset: 0x232E2, size: 0x8, addend: 0x0, symName: __ZNSt3__122__compressed_pair_elemINS_9allocatorI14crawlerResultsEELi1ELb1EEC2B7v160006ENS_18__default_init_tagE, symObjAddr: 0x10DD4, symBinAddr: 0x100012BA8, symSize: 0x2C }
  - { offsetInCU: 0x23316, offset: 0x23316, size: 0x8, addend: 0x0, symName: __ZNSt3__19allocatorI14crawlerResultsEC2B7v160006Ev, symObjAddr: 0x10E00, symBinAddr: 0x100012BD4, symSize: 0x2C }
  - { offsetInCU: 0x23340, offset: 0x23340, size: 0x8, addend: 0x0, symName: __ZNSt3__116__non_trivial_ifILb1ENS_9allocatorI14crawlerResultsEEEC2B7v160006Ev, symObjAddr: 0x10E2C, symBinAddr: 0x100012C00, symSize: 0x14 }
  - { offsetInCU: 0x2336A, offset: 0x2336A, size: 0x8, addend: 0x0, symName: __ZNSt3__15queueI14crawlerResultsNS_5dequeIS1_NS_9allocatorIS1_EEEEED2Ev, symObjAddr: 0x10E40, symBinAddr: 0x100012C14, symSize: 0x2C }
  - { offsetInCU: 0x23397, offset: 0x23397, size: 0x8, addend: 0x0, symName: __ZNSt3__15dequeI14crawlerResultsNS_9allocatorIS1_EEED1B7v160006Ev, symObjAddr: 0x10E6C, symBinAddr: 0x100012C40, symSize: 0x2C }
  - { offsetInCU: 0x233C1, offset: 0x233C1, size: 0x8, addend: 0x0, symName: __ZNSt3__15dequeI14crawlerResultsNS_9allocatorIS1_EEED2B7v160006Ev, symObjAddr: 0x10E98, symBinAddr: 0x100012C6C, symSize: 0x9C }
  - { offsetInCU: 0x23417, offset: 0x23417, size: 0x8, addend: 0x0, symName: __ZNSt3__15dequeI14crawlerResultsNS_9allocatorIS1_EEE5clearEv, symObjAddr: 0x10F34, symBinAddr: 0x100012D08, symSize: 0x180 }
  - { offsetInCU: 0x23473, offset: 0x23473, size: 0x8, addend: 0x0, symName: __ZNSt3__114__split_bufferIP14crawlerResultsNS_9allocatorIS2_EEE5beginB7v160006Ev, symObjAddr: 0x110B4, symBinAddr: 0x100012E88, symSize: 0x18 }
  - { offsetInCU: 0x23499, offset: 0x23499, size: 0x8, addend: 0x0, symName: __ZNSt3__114__split_bufferIP14crawlerResultsNS_9allocatorIS2_EEE3endB7v160006Ev, symObjAddr: 0x110CC, symBinAddr: 0x100012EA0, symSize: 0x18 }
  - { offsetInCU: 0x234BF, offset: 0x234BF, size: 0x8, addend: 0x0, symName: __ZNSt3__116allocator_traitsINS_9allocatorI14crawlerResultsEEE10deallocateB7v160006ERS3_PS2_m, symObjAddr: 0x110E4, symBinAddr: 0x100012EB8, symSize: 0x34 }
  - { offsetInCU: 0x23501, offset: 0x23501, size: 0x8, addend: 0x0, symName: __ZNSt3__15dequeI14crawlerResultsNS_9allocatorIS1_EEE7__allocB7v160006Ev, symObjAddr: 0x11118, symBinAddr: 0x100012EEC, symSize: 0x28 }
  - { offsetInCU: 0x23527, offset: 0x23527, size: 0x8, addend: 0x0, symName: __ZNSt3__114__split_bufferIP14crawlerResultsNS_9allocatorIS2_EEED1Ev, symObjAddr: 0x11140, symBinAddr: 0x100012F14, symSize: 0x2C }
  - { offsetInCU: 0x23553, offset: 0x23553, size: 0x8, addend: 0x0, symName: __ZNSt3__15dequeI14crawlerResultsNS_9allocatorIS1_EEE5beginB7v160006Ev, symObjAddr: 0x1116C, symBinAddr: 0x100012F40, symSize: 0xC0 }
  - { offsetInCU: 0x23588, offset: 0x23588, size: 0x8, addend: 0x0, symName: __ZNSt3__15dequeI14crawlerResultsNS_9allocatorIS1_EEE3endB7v160006Ev, symObjAddr: 0x1122C, symBinAddr: 0x100013000, symSize: 0xC4 }
  - { offsetInCU: 0x235CC, offset: 0x235CC, size: 0x8, addend: 0x0, symName: __ZNSt3__116allocator_traitsINS_9allocatorI14crawlerResultsEEE7destroyB7v160006IS2_vEEvRS3_PT_, symObjAddr: 0x11324, symBinAddr: 0x1000130F8, symSize: 0x2C }
  - { offsetInCU: 0x23609, offset: 0x23609, size: 0x8, addend: 0x0, symName: __ZNKSt3__116__deque_iteratorI14crawlerResultsPS1_RS1_PS2_lLl23EEdeB7v160006Ev, symObjAddr: 0x11350, symBinAddr: 0x100013124, symSize: 0x18 }
  - { offsetInCU: 0x2362F, offset: 0x2362F, size: 0x8, addend: 0x0, symName: __ZNSt3__116__deque_iteratorI14crawlerResultsPS1_RS1_PS2_lLl23EEppB7v160006Ev, symObjAddr: 0x11368, symBinAddr: 0x10001313C, symSize: 0x70 }
  - { offsetInCU: 0x23655, offset: 0x23655, size: 0x8, addend: 0x0, symName: __ZNSt3__15dequeI14crawlerResultsNS_9allocatorIS1_EEE6__sizeB7v160006Ev, symObjAddr: 0x113D8, symBinAddr: 0x1000131AC, symSize: 0x28 }
  - { offsetInCU: 0x2367B, offset: 0x2367B, size: 0x8, addend: 0x0, symName: __ZNKSt3__114__split_bufferIP14crawlerResultsNS_9allocatorIS2_EEE4sizeB7v160006Ev, symObjAddr: 0x11400, symBinAddr: 0x1000131D4, symSize: 0x28 }
  - { offsetInCU: 0x236A1, offset: 0x236A1, size: 0x8, addend: 0x0, symName: __ZNSt3__114__split_bufferIP14crawlerResultsNS_9allocatorIS2_EEE5frontB7v160006Ev, symObjAddr: 0x11428, symBinAddr: 0x1000131FC, symSize: 0x18 }
  - { offsetInCU: 0x236C7, offset: 0x236C7, size: 0x8, addend: 0x0, symName: __ZNSt3__114__split_bufferIP14crawlerResultsNS_9allocatorIS2_EEE9pop_frontB7v160006Ev, symObjAddr: 0x11440, symBinAddr: 0x100013214, symSize: 0x2C }
  - { offsetInCU: 0x236ED, offset: 0x236ED, size: 0x8, addend: 0x0, symName: __ZNKSt3__114__split_bufferIP14crawlerResultsNS_9allocatorIS2_EEE5emptyB7v160006Ev, symObjAddr: 0x1146C, symBinAddr: 0x100013240, symSize: 0x28 }
  - { offsetInCU: 0x23713, offset: 0x23713, size: 0x8, addend: 0x0, symName: __ZNSt3__116__deque_iteratorI14crawlerResultsPS1_RS1_PS2_lLl23EEC1B7v160006ES4_S2_, symObjAddr: 0x11494, symBinAddr: 0x100013268, symSize: 0x3C }
  - { offsetInCU: 0x2375B, offset: 0x2375B, size: 0x8, addend: 0x0, symName: __ZNSt3__116__deque_iteratorI14crawlerResultsPS1_RS1_PS2_lLl23EEC2B7v160006ES4_S2_, symObjAddr: 0x114D0, symBinAddr: 0x1000132A4, symSize: 0x2C }
  - { offsetInCU: 0x237A3, offset: 0x237A3, size: 0x8, addend: 0x0, symName: __ZNKSt3__15dequeI14crawlerResultsNS_9allocatorIS1_EEE4sizeB7v160006Ev, symObjAddr: 0x114FC, symBinAddr: 0x1000132D0, symSize: 0x28 }
  - { offsetInCU: 0x237C9, offset: 0x237C9, size: 0x8, addend: 0x0, symName: __ZNKSt3__15dequeI14crawlerResultsNS_9allocatorIS1_EEE6__sizeB7v160006Ev, symObjAddr: 0x11524, symBinAddr: 0x1000132F8, symSize: 0x28 }
  - { offsetInCU: 0x237EF, offset: 0x237EF, size: 0x8, addend: 0x0, symName: __ZNKSt3__117__compressed_pairImNS_9allocatorI14crawlerResultsEEE5firstB7v160006Ev, symObjAddr: 0x1154C, symBinAddr: 0x100013320, symSize: 0x24 }
  - { offsetInCU: 0x23815, offset: 0x23815, size: 0x8, addend: 0x0, symName: __ZNSt3__19allocatorI14crawlerResultsE7destroyB7v160006EPS1_, symObjAddr: 0x115A0, symBinAddr: 0x100013374, symSize: 0x28 }
  - { offsetInCU: 0x23849, offset: 0x23849, size: 0x8, addend: 0x0, symName: __ZNSt3__117__compressed_pairImNS_9allocatorI14crawlerResultsEEE5firstB7v160006Ev, symObjAddr: 0x115C8, symBinAddr: 0x10001339C, symSize: 0x24 }
  - { offsetInCU: 0x2386F, offset: 0x2386F, size: 0x8, addend: 0x0, symName: __ZNSt3__114__split_bufferIP14crawlerResultsNS_9allocatorIS2_EEE19__destruct_at_beginB7v160006EPS2_, symObjAddr: 0x115EC, symBinAddr: 0x1000133C0, symSize: 0x2C }
  - { offsetInCU: 0x238A3, offset: 0x238A3, size: 0x8, addend: 0x0, symName: __ZNSt3__114__split_bufferIP14crawlerResultsNS_9allocatorIS2_EEE19__destruct_at_beginEPS2_NS_17integral_constantIbLb1EEE, symObjAddr: 0x11618, symBinAddr: 0x1000133EC, symSize: 0x20 }
  - { offsetInCU: 0x238E3, offset: 0x238E3, size: 0x8, addend: 0x0, symName: __ZNSt3__19allocatorI14crawlerResultsE10deallocateB7v160006EPS1_m, symObjAddr: 0x11638, symBinAddr: 0x10001340C, symSize: 0x44 }
  - { offsetInCU: 0x23925, offset: 0x23925, size: 0x8, addend: 0x0, symName: __ZNSt3__117__compressed_pairImNS_9allocatorI14crawlerResultsEEE6secondB7v160006Ev, symObjAddr: 0x1167C, symBinAddr: 0x100013450, symSize: 0x24 }
  - { offsetInCU: 0x2394B, offset: 0x2394B, size: 0x8, addend: 0x0, symName: __ZNSt3__122__compressed_pair_elemINS_9allocatorI14crawlerResultsEELi1ELb1EE5__getB7v160006Ev, symObjAddr: 0x116A0, symBinAddr: 0x100013474, symSize: 0x14 }
  - { offsetInCU: 0x23971, offset: 0x23971, size: 0x8, addend: 0x0, symName: __ZNSt3__114__split_bufferIP14crawlerResultsNS_9allocatorIS2_EEED2Ev, symObjAddr: 0x116B4, symBinAddr: 0x100013488, symSize: 0x8C }
  - { offsetInCU: 0x2399D, offset: 0x2399D, size: 0x8, addend: 0x0, symName: __ZNSt3__114__split_bufferIP14crawlerResultsNS_9allocatorIS2_EEE5clearB7v160006Ev, symObjAddr: 0x11740, symBinAddr: 0x100013514, symSize: 0x28 }
  - { offsetInCU: 0x239C3, offset: 0x239C3, size: 0x8, addend: 0x0, symName: __ZNSt3__116allocator_traitsINS_9allocatorIP14crawlerResultsEEE10deallocateB7v160006ERS4_PS3_m, symObjAddr: 0x11768, symBinAddr: 0x10001353C, symSize: 0x34 }
  - { offsetInCU: 0x23A05, offset: 0x23A05, size: 0x8, addend: 0x0, symName: __ZNSt3__114__split_bufferIP14crawlerResultsNS_9allocatorIS2_EEE7__allocB7v160006Ev, symObjAddr: 0x1179C, symBinAddr: 0x100013570, symSize: 0x28 }
  - { offsetInCU: 0x23A2B, offset: 0x23A2B, size: 0x8, addend: 0x0, symName: __ZNKSt3__114__split_bufferIP14crawlerResultsNS_9allocatorIS2_EEE8capacityB7v160006Ev, symObjAddr: 0x117C4, symBinAddr: 0x100013598, symSize: 0x40 }
  - { offsetInCU: 0x23A51, offset: 0x23A51, size: 0x8, addend: 0x0, symName: __ZNSt3__114__split_bufferIP14crawlerResultsNS_9allocatorIS2_EEE17__destruct_at_endB7v160006EPS2_, symObjAddr: 0x11804, symBinAddr: 0x1000135D8, symSize: 0x2C }
  - { offsetInCU: 0x23A85, offset: 0x23A85, size: 0x8, addend: 0x0, symName: __ZNSt3__114__split_bufferIP14crawlerResultsNS_9allocatorIS2_EEE17__destruct_at_endB7v160006EPS2_NS_17integral_constantIbLb0EEE, symObjAddr: 0x11830, symBinAddr: 0x100013604, symSize: 0x80 }
  - { offsetInCU: 0x23AC5, offset: 0x23AC5, size: 0x8, addend: 0x0, symName: __ZNSt3__116allocator_traitsINS_9allocatorIP14crawlerResultsEEE7destroyB7v160006IS3_vEEvRS4_PT_, symObjAddr: 0x118B0, symBinAddr: 0x100013684, symSize: 0x2C }
  - { offsetInCU: 0x23B02, offset: 0x23B02, size: 0x8, addend: 0x0, symName: __ZNSt3__19allocatorIP14crawlerResultsE7destroyB7v160006EPS2_, symObjAddr: 0x118F0, symBinAddr: 0x1000136C4, symSize: 0x14 }
  - { offsetInCU: 0x23B36, offset: 0x23B36, size: 0x8, addend: 0x0, symName: __ZNSt3__19allocatorIP14crawlerResultsE10deallocateB7v160006EPS2_m, symObjAddr: 0x11904, symBinAddr: 0x1000136D8, symSize: 0x40 }
  - { offsetInCU: 0x23B78, offset: 0x23B78, size: 0x8, addend: 0x0, symName: __ZNSt3__117__compressed_pairIPP14crawlerResultsNS_9allocatorIS2_EEE6secondB7v160006Ev, symObjAddr: 0x11944, symBinAddr: 0x100013718, symSize: 0x24 }
  - { offsetInCU: 0x23B9E, offset: 0x23B9E, size: 0x8, addend: 0x0, symName: __ZNSt3__122__compressed_pair_elemINS_9allocatorIP14crawlerResultsEELi1ELb1EE5__getB7v160006Ev, symObjAddr: 0x11968, symBinAddr: 0x10001373C, symSize: 0x14 }
  - { offsetInCU: 0x23BC4, offset: 0x23BC4, size: 0x8, addend: 0x0, symName: __ZNKSt3__114__split_bufferIP14crawlerResultsNS_9allocatorIS2_EEE9__end_capB7v160006Ev, symObjAddr: 0x1197C, symBinAddr: 0x100013750, symSize: 0x28 }
  - { offsetInCU: 0x23BEA, offset: 0x23BEA, size: 0x8, addend: 0x0, symName: __ZNKSt3__117__compressed_pairIPP14crawlerResultsNS_9allocatorIS2_EEE5firstB7v160006Ev, symObjAddr: 0x119A4, symBinAddr: 0x100013778, symSize: 0x24 }
  - { offsetInCU: 0x23C10, offset: 0x23C10, size: 0x8, addend: 0x0, symName: __ZNKSt3__122__compressed_pair_elemIPP14crawlerResultsLi0ELb0EE5__getB7v160006Ev, symObjAddr: 0x119C8, symBinAddr: 0x10001379C, symSize: 0x14 }
  - { offsetInCU: 0x23C36, offset: 0x23C36, size: 0x8, addend: 0x0, symName: __ZN15ThreadSafeQueueI14crawlerResultsED2Ev, symObjAddr: 0x119DC, symBinAddr: 0x1000137B0, symSize: 0x50 }
  - { offsetInCU: 0x23C60, offset: 0x23C60, size: 0x8, addend: 0x0, symName: __ZN6vectorIcEC2Em, symObjAddr: 0x11A2C, symBinAddr: 0x100013800, symSize: 0xC8 }
  - { offsetInCU: 0x23CB4, offset: 0x23CB4, size: 0x8, addend: 0x0, symName: __ZN6vectorIcE5resetEv, symObjAddr: 0x11AF4, symBinAddr: 0x1000138C8, symSize: 0x58 }
  - { offsetInCU: 0x23CDA, offset: 0x23CDA, size: 0x8, addend: 0x0, symName: __ZNSt3__15queueI14crawlerResultsNS_5dequeIS1_NS_9allocatorIS1_EEEEE4pushB7v160006ERKS1_, symObjAddr: 0x11B4C, symBinAddr: 0x100013920, symSize: 0x2C }
  - { offsetInCU: 0x23D0F, offset: 0x23D0F, size: 0x8, addend: 0x0, symName: __ZNSt3__15dequeI14crawlerResultsNS_9allocatorIS1_EEE9push_backERKS1_, symObjAddr: 0x11B78, symBinAddr: 0x10001394C, symSize: 0xA0 }
  - { offsetInCU: 0x23D55, offset: 0x23D55, size: 0x8, addend: 0x0, symName: __ZNKSt3__15dequeI14crawlerResultsNS_9allocatorIS1_EEE12__back_spareB7v160006Ev, symObjAddr: 0x11C18, symBinAddr: 0x1000139EC, symSize: 0x54 }
  - { offsetInCU: 0x23D7B, offset: 0x23D7B, size: 0x8, addend: 0x0, symName: __ZNSt3__15dequeI14crawlerResultsNS_9allocatorIS1_EEE19__add_back_capacityEv, symObjAddr: 0x11C6C, symBinAddr: 0x100013A40, symSize: 0x314 }
  - { offsetInCU: 0x23E31, offset: 0x23E31, size: 0x8, addend: 0x0, symName: __ZNSt3__116allocator_traitsINS_9allocatorI14crawlerResultsEEE9constructB7v160006IS2_JRKS2_EvEEvRS3_PT_DpOT0_, symObjAddr: 0x11F80, symBinAddr: 0x100013D54, symSize: 0x34 }
  - { offsetInCU: 0x23E88, offset: 0x23E88, size: 0x8, addend: 0x0, symName: __ZNKSt3__15dequeI14crawlerResultsNS_9allocatorIS1_EEE10__capacityB7v160006Ev, symObjAddr: 0x11FB4, symBinAddr: 0x100013D88, symSize: 0x64 }
  - { offsetInCU: 0x23EAE, offset: 0x23EAE, size: 0x8, addend: 0x0, symName: __ZNKSt3__15dequeI14crawlerResultsNS_9allocatorIS1_EEE13__front_spareB7v160006Ev, symObjAddr: 0x12018, symBinAddr: 0x100013DEC, symSize: 0x18 }
  - { offsetInCU: 0x23ED4, offset: 0x23ED4, size: 0x8, addend: 0x0, symName: __ZNSt3__114__split_bufferIP14crawlerResultsNS_9allocatorIS2_EEE9push_backB7v160006ERKS2_, symObjAddr: 0x12030, symBinAddr: 0x100013E04, symSize: 0x260 }
  - { offsetInCU: 0x23F4D, offset: 0x23F4D, size: 0x8, addend: 0x0, symName: __ZNKSt3__114__split_bufferIP14crawlerResultsNS_9allocatorIS2_EEE12__back_spareB7v160006Ev, symObjAddr: 0x12290, symBinAddr: 0x100014064, symSize: 0x40 }
  - { offsetInCU: 0x23F73, offset: 0x23F73, size: 0x8, addend: 0x0, symName: __ZNSt3__114__split_bufferIP14crawlerResultsNS_9allocatorIS2_EEE9push_backEOS2_, symObjAddr: 0x122D0, symBinAddr: 0x1000140A4, symSize: 0x260 }
  - { offsetInCU: 0x23FEC, offset: 0x23FEC, size: 0x8, addend: 0x0, symName: __ZNSt3__116allocator_traitsINS_9allocatorI14crawlerResultsEEE8allocateB7v160006ERS3_m, symObjAddr: 0x12530, symBinAddr: 0x100014304, symSize: 0x2C }
  - { offsetInCU: 0x2401F, offset: 0x2401F, size: 0x8, addend: 0x0, symName: __ZNSt3__114__split_bufferIP14crawlerResultsNS_9allocatorIS2_EEE10push_frontEOS2_, symObjAddr: 0x1255C, symBinAddr: 0x100014330, symSize: 0x25C }
  - { offsetInCU: 0x24098, offset: 0x24098, size: 0x8, addend: 0x0, symName: __ZNSt3__114__split_bufferIP14crawlerResultsRNS_9allocatorIS2_EEEC1EmmS5_, symObjAddr: 0x127B8, symBinAddr: 0x10001458C, symSize: 0x44 }
  - { offsetInCU: 0x240F3, offset: 0x240F3, size: 0x8, addend: 0x0, symName: __ZNSt3__122__allocator_destructorINS_9allocatorI14crawlerResultsEEEC1B7v160006ERS3_m, symObjAddr: 0x127FC, symBinAddr: 0x1000145D0, symSize: 0x3C }
  - { offsetInCU: 0x241B6, offset: 0x241B6, size: 0x8, addend: 0x0, symName: __ZNSt3__110unique_ptrIP14crawlerResultsNS_22__allocator_destructorINS_9allocatorIS1_EEEEEC1B7v160006ILb1EvEES2_NS_16__dependent_typeINS_27__unique_ptr_deleter_sfinaeIS6_EEXT_EE20__good_rval_ref_typeE, symObjAddr: 0x12838, symBinAddr: 0x10001460C, symSize: 0x3C }
  - { offsetInCU: 0x24207, offset: 0x24207, size: 0x8, addend: 0x0, symName: __ZNSt3__114__split_bufferIP14crawlerResultsRNS_9allocatorIS2_EEE9push_backEOS2_, symObjAddr: 0x12874, symBinAddr: 0x100014648, symSize: 0x260 }
  - { offsetInCU: 0x24280, offset: 0x24280, size: 0x8, addend: 0x0, symName: __ZNKSt3__110unique_ptrIP14crawlerResultsNS_22__allocator_destructorINS_9allocatorIS1_EEEEE3getB7v160006Ev, symObjAddr: 0x12AD4, symBinAddr: 0x1000148A8, symSize: 0x28 }
  - { offsetInCU: 0x242A6, offset: 0x242A6, size: 0x8, addend: 0x0, symName: __ZNSt3__110unique_ptrIP14crawlerResultsNS_22__allocator_destructorINS_9allocatorIS1_EEEEE7releaseB7v160006Ev, symObjAddr: 0x12AFC, symBinAddr: 0x1000148D0, symSize: 0x44 }
  - { offsetInCU: 0x242DB, offset: 0x242DB, size: 0x8, addend: 0x0, symName: __ZNSt3__114__split_bufferIP14crawlerResultsRNS_9allocatorIS2_EEE10push_frontERKS2_, symObjAddr: 0x12B40, symBinAddr: 0x100014914, symSize: 0x25C }
  - { offsetInCU: 0x24354, offset: 0x24354, size: 0x8, addend: 0x0, symName: __ZNSt3__114__split_bufferIP14crawlerResultsNS_9allocatorIS2_EEE9__end_capB7v160006Ev, symObjAddr: 0x12DD8, symBinAddr: 0x100014BAC, symSize: 0x28 }
  - { offsetInCU: 0x2437A, offset: 0x2437A, size: 0x8, addend: 0x0, symName: __ZNSt3__114__split_bufferIP14crawlerResultsRNS_9allocatorIS2_EEE9__end_capB7v160006Ev, symObjAddr: 0x12E00, symBinAddr: 0x100014BD4, symSize: 0x28 }
  - { offsetInCU: 0x243A0, offset: 0x243A0, size: 0x8, addend: 0x0, symName: __ZNSt3__110unique_ptrIP14crawlerResultsNS_22__allocator_destructorINS_9allocatorIS1_EEEEED1B7v160006Ev, symObjAddr: 0x12E28, symBinAddr: 0x100014BFC, symSize: 0x2C }
  - { offsetInCU: 0x243CA, offset: 0x243CA, size: 0x8, addend: 0x0, symName: __ZNSt3__114__split_bufferIP14crawlerResultsRNS_9allocatorIS2_EEED1Ev, symObjAddr: 0x12E54, symBinAddr: 0x100014C28, symSize: 0x2C }
  - { offsetInCU: 0x243F6, offset: 0x243F6, size: 0x8, addend: 0x0, symName: __ZNSt3__114__split_bufferIP14crawlerResultsRNS_9allocatorIS2_EEE18__construct_at_endINS_13move_iteratorIPS2_EEEENS_9enable_ifIXsr27__is_cpp17_forward_iteratorIT_EE5valueEvE4typeESC_SC_, symObjAddr: 0x12EC0, symBinAddr: 0x100014C94, symSize: 0xFC }
  - { offsetInCU: 0x24452, offset: 0x24452, size: 0x8, addend: 0x0, symName: __ZNSt3__113move_iteratorIPP14crawlerResultsEC1B7v160006ES3_, symObjAddr: 0x12FBC, symBinAddr: 0x100014D90, symSize: 0x34 }
  - { offsetInCU: 0x2448A, offset: 0x2448A, size: 0x8, addend: 0x0, symName: __ZNSt3__116allocator_traitsINS_9allocatorIP14crawlerResultsEEE9constructB7v160006IS3_JRKS3_EvEEvRS4_PT_DpOT0_, symObjAddr: 0x12FF0, symBinAddr: 0x100014DC4, symSize: 0x34 }
  - { offsetInCU: 0x244FA, offset: 0x244FA, size: 0x8, addend: 0x0, symName: __ZNKSt3__114__move_trivialclB7v160006IP14crawlerResultsS3_Li0EEENS_4pairIPT_PT0_EES6_S6_S8_, symObjAddr: 0x131C0, symBinAddr: 0x100014F94, symSize: 0x48 }
  - { offsetInCU: 0x24567, offset: 0x24567, size: 0x8, addend: 0x0, symName: __ZNSt3__14pairIPP14crawlerResultsS3_EC1B7v160006IRS3_S3_LPv0EEEOT_OT0_, symObjAddr: 0x13388, symBinAddr: 0x10001515C, symSize: 0x3C }
  - { offsetInCU: 0x245C5, offset: 0x245C5, size: 0x8, addend: 0x0, symName: __ZNSt3__14pairIPP14crawlerResultsS3_EC2B7v160006IRS3_S3_LPv0EEEOT_OT0_, symObjAddr: 0x133C4, symBinAddr: 0x100015198, symSize: 0x34 }
  - { offsetInCU: 0x24623, offset: 0x24623, size: 0x8, addend: 0x0, symName: __ZNSt3__118__unwrap_iter_implIPP14crawlerResultsLb1EE8__unwrapB7v160006ES3_, symObjAddr: 0x133F8, symBinAddr: 0x1000151CC, symSize: 0x24 }
  - { offsetInCU: 0x24646, offset: 0x24646, size: 0x8, addend: 0x0, symName: __ZNSt3__14pairIPP14crawlerResultsS3_EC1B7v160006IS3_S3_LPv0EEEOT_OT0_, symObjAddr: 0x1341C, symBinAddr: 0x1000151F0, symSize: 0x3C }
  - { offsetInCU: 0x246A4, offset: 0x246A4, size: 0x8, addend: 0x0, symName: __ZNSt3__14pairIPP14crawlerResultsS3_EC2B7v160006IS3_S3_LPv0EEEOT_OT0_, symObjAddr: 0x13458, symBinAddr: 0x10001522C, symSize: 0x34 }
  - { offsetInCU: 0x24702, offset: 0x24702, size: 0x8, addend: 0x0, symName: __ZNSt3__118__unwrap_iter_implIPP14crawlerResultsLb1EE8__rewrapB7v160006ES3_S3_, symObjAddr: 0x1348C, symBinAddr: 0x100015260, symSize: 0x50 }
  - { offsetInCU: 0x2473D, offset: 0x2473D, size: 0x8, addend: 0x0, symName: __ZNSt3__114__split_bufferIP14crawlerResultsRNS_9allocatorIS2_EEE21_ConstructTransactionC1B7v160006EPPS2_m, symObjAddr: 0x13518, symBinAddr: 0x1000152EC, symSize: 0x3C }
  - { offsetInCU: 0x24783, offset: 0x24783, size: 0x8, addend: 0x0, symName: __ZNSt3__116allocator_traitsINS_9allocatorIP14crawlerResultsEEE9constructB7v160006IS3_JS3_EvEEvRS4_PT_DpOT0_, symObjAddr: 0x13554, symBinAddr: 0x100015328, symSize: 0x34 }
  - { offsetInCU: 0x247DA, offset: 0x247DA, size: 0x8, addend: 0x0, symName: __ZNSt3__114__split_bufferIP14crawlerResultsRNS_9allocatorIS2_EEE7__allocB7v160006Ev, symObjAddr: 0x13588, symBinAddr: 0x10001535C, symSize: 0x28 }
  - { offsetInCU: 0x24800, offset: 0x24800, size: 0x8, addend: 0x0, symName: __ZNKSt3__113move_iteratorIPP14crawlerResultsEdeB7v160006Ev, symObjAddr: 0x135B0, symBinAddr: 0x100015384, symSize: 0x18 }
  - { offsetInCU: 0x24826, offset: 0x24826, size: 0x8, addend: 0x0, symName: __ZNSt3__113move_iteratorIPP14crawlerResultsEppB7v160006Ev, symObjAddr: 0x135C8, symBinAddr: 0x10001539C, symSize: 0x20 }
  - { offsetInCU: 0x2484C, offset: 0x2484C, size: 0x8, addend: 0x0, symName: __ZNSt3__114__split_bufferIP14crawlerResultsRNS_9allocatorIS2_EEE21_ConstructTransactionD1B7v160006Ev, symObjAddr: 0x135E8, symBinAddr: 0x1000153BC, symSize: 0x2C }
  - { offsetInCU: 0x24876, offset: 0x24876, size: 0x8, addend: 0x0, symName: __ZNKSt3__113move_iteratorIPP14crawlerResultsE4baseB7v160006Ev, symObjAddr: 0x1368C, symBinAddr: 0x100015460, symSize: 0x18 }
  - { offsetInCU: 0x2489C, offset: 0x2489C, size: 0x8, addend: 0x0, symName: __ZNSt3__114__split_bufferIP14crawlerResultsRNS_9allocatorIS2_EEE21_ConstructTransactionC2B7v160006EPPS2_m, symObjAddr: 0x136A4, symBinAddr: 0x100015478, symSize: 0x44 }
  - { offsetInCU: 0x248E2, offset: 0x248E2, size: 0x8, addend: 0x0, symName: __ZNSt3__19allocatorIP14crawlerResultsE9constructB7v160006IS2_JS2_EEEvPT_DpOT0_, symObjAddr: 0x136E8, symBinAddr: 0x1000154BC, symSize: 0x28 }
  - { offsetInCU: 0x24938, offset: 0x24938, size: 0x8, addend: 0x0, symName: __ZNSt3__117__compressed_pairIPP14crawlerResultsRNS_9allocatorIS2_EEE6secondB7v160006Ev, symObjAddr: 0x13710, symBinAddr: 0x1000154E4, symSize: 0x28 }
  - { offsetInCU: 0x2495E, offset: 0x2495E, size: 0x8, addend: 0x0, symName: __ZNSt3__122__compressed_pair_elemIRNS_9allocatorIP14crawlerResultsEELi1ELb0EE5__getB7v160006Ev, symObjAddr: 0x13738, symBinAddr: 0x10001550C, symSize: 0x18 }
  - { offsetInCU: 0x24984, offset: 0x24984, size: 0x8, addend: 0x0, symName: __ZNSt3__114__split_bufferIP14crawlerResultsRNS_9allocatorIS2_EEE21_ConstructTransactionD2B7v160006Ev, symObjAddr: 0x13750, symBinAddr: 0x100015524, symSize: 0x20 }
  - { offsetInCU: 0x249AE, offset: 0x249AE, size: 0x8, addend: 0x0, symName: __ZNSt3__113move_iteratorIPP14crawlerResultsEC2B7v160006ES3_, symObjAddr: 0x13770, symBinAddr: 0x100015544, symSize: 0x20 }
  - { offsetInCU: 0x249E6, offset: 0x249E6, size: 0x8, addend: 0x0, symName: __ZNSt3__19allocatorIP14crawlerResultsE9constructB7v160006IS2_JRKS2_EEEvPT_DpOT0_, symObjAddr: 0x13790, symBinAddr: 0x100015564, symSize: 0x28 }
  - { offsetInCU: 0x24A3C, offset: 0x24A3C, size: 0x8, addend: 0x0, symName: __ZNSt3__19allocatorI14crawlerResultsE8allocateB7v160006Em, symObjAddr: 0x137B8, symBinAddr: 0x10001558C, symSize: 0x5C }
  - { offsetInCU: 0x24A7A, offset: 0x24A7A, size: 0x8, addend: 0x0, symName: __ZNSt3__116allocator_traitsINS_9allocatorI14crawlerResultsEEE8max_sizeB7v160006IS3_vEEmRKS3_, symObjAddr: 0x13814, symBinAddr: 0x1000155E8, symSize: 0x24 }
  - { offsetInCU: 0x24AA8, offset: 0x24AA8, size: 0x8, addend: 0x0, symName: __ZNKSt3__19allocatorI14crawlerResultsE8max_sizeB7v160006Ev, symObjAddr: 0x13838, symBinAddr: 0x10001560C, symSize: 0x20 }
  - { offsetInCU: 0x24ACE, offset: 0x24ACE, size: 0x8, addend: 0x0, symName: __ZNKSt3__123__move_backward_trivialclB7v160006IP14crawlerResultsS3_Li0EEENS_4pairIPT_PT0_EES6_S6_S8_, symObjAddr: 0x139D4, symBinAddr: 0x1000157A8, symSize: 0x48 }
  - { offsetInCU: 0x24B36, offset: 0x24B36, size: 0x8, addend: 0x0, symName: __ZNSt3__14pairIPP14crawlerResultsS3_EC1B7v160006IRS3_S6_LPv0EEEOT_OT0_, symObjAddr: 0x13AE8, symBinAddr: 0x1000158BC, symSize: 0x3C }
  - { offsetInCU: 0x24B94, offset: 0x24B94, size: 0x8, addend: 0x0, symName: __ZNSt3__14pairIPP14crawlerResultsS3_EC2B7v160006IRS3_S6_LPv0EEEOT_OT0_, symObjAddr: 0x13B24, symBinAddr: 0x1000158F8, symSize: 0x34 }
  - { offsetInCU: 0x24BF2, offset: 0x24BF2, size: 0x8, addend: 0x0, symName: __ZNSt3__114__split_bufferIP14crawlerResultsRNS_9allocatorIS2_EEEC2EmmS5_, symObjAddr: 0x13B58, symBinAddr: 0x10001592C, symSize: 0xD4 }
  - { offsetInCU: 0x24C65, offset: 0x24C65, size: 0x8, addend: 0x0, symName: __ZNSt3__117__compressed_pairIPP14crawlerResultsRNS_9allocatorIS2_EEEC1B7v160006IDnS6_EEOT_OT0_, symObjAddr: 0x13C2C, symBinAddr: 0x100015A00, symSize: 0x3C }
  - { offsetInCU: 0x24CBD, offset: 0x24CBD, size: 0x8, addend: 0x0, symName: __ZNSt3__117__compressed_pairIPP14crawlerResultsRNS_9allocatorIS2_EEEC2B7v160006IDnS6_EEOT_OT0_, symObjAddr: 0x13CA8, symBinAddr: 0x100015A7C, symSize: 0x48 }
  - { offsetInCU: 0x24D15, offset: 0x24D15, size: 0x8, addend: 0x0, symName: __ZNSt3__122__compressed_pair_elemIRNS_9allocatorIP14crawlerResultsEELi1ELb0EEC2B7v160006IS5_vEEOT_, symObjAddr: 0x13CF0, symBinAddr: 0x100015AC4, symSize: 0x20 }
  - { offsetInCU: 0x24D57, offset: 0x24D57, size: 0x8, addend: 0x0, symName: __ZNSt3__19allocatorIP14crawlerResultsE8allocateB7v160006Em, symObjAddr: 0x13D10, symBinAddr: 0x100015AE4, symSize: 0x58 }
  - { offsetInCU: 0x24D95, offset: 0x24D95, size: 0x8, addend: 0x0, symName: __ZNSt3__116allocator_traitsINS_9allocatorIP14crawlerResultsEEE8max_sizeB7v160006IS4_vEEmRKS4_, symObjAddr: 0x13D68, symBinAddr: 0x100015B3C, symSize: 0x24 }
  - { offsetInCU: 0x24DC3, offset: 0x24DC3, size: 0x8, addend: 0x0, symName: __ZNKSt3__19allocatorIP14crawlerResultsE8max_sizeB7v160006Ev, symObjAddr: 0x13D8C, symBinAddr: 0x100015B60, symSize: 0x14 }
  - { offsetInCU: 0x24DE9, offset: 0x24DE9, size: 0x8, addend: 0x0, symName: __ZNSt3__122__allocator_destructorINS_9allocatorI14crawlerResultsEEEC2B7v160006ERS3_m, symObjAddr: 0x13DA0, symBinAddr: 0x100015B74, symSize: 0x2C }
  - { offsetInCU: 0x24E2F, offset: 0x24E2F, size: 0x8, addend: 0x0, symName: __ZNSt3__110unique_ptrIP14crawlerResultsNS_22__allocator_destructorINS_9allocatorIS1_EEEEEC2B7v160006ILb1EvEES2_NS_16__dependent_typeINS_27__unique_ptr_deleter_sfinaeIS6_EEXT_EE20__good_rval_ref_typeE, symObjAddr: 0x13DCC, symBinAddr: 0x100015BA0, symSize: 0x48 }
  - { offsetInCU: 0x24E80, offset: 0x24E80, size: 0x8, addend: 0x0, symName: __ZNSt3__117__compressed_pairIP14crawlerResultsNS_22__allocator_destructorINS_9allocatorIS1_EEEEEC1B7v160006IRS2_S6_EEOT_OT0_, symObjAddr: 0x13E14, symBinAddr: 0x100015BE8, symSize: 0x3C }
  - { offsetInCU: 0x24ED8, offset: 0x24ED8, size: 0x8, addend: 0x0, symName: __ZNSt3__117__compressed_pairIP14crawlerResultsNS_22__allocator_destructorINS_9allocatorIS1_EEEEEC2B7v160006IRS2_S6_EEOT_OT0_, symObjAddr: 0x13E50, symBinAddr: 0x100015C24, symSize: 0x48 }
  - { offsetInCU: 0x24F30, offset: 0x24F30, size: 0x8, addend: 0x0, symName: __ZNSt3__122__compressed_pair_elemIP14crawlerResultsLi0ELb0EEC2B7v160006IRS2_vEEOT_, symObjAddr: 0x13E98, symBinAddr: 0x100015C6C, symSize: 0x24 }
  - { offsetInCU: 0x24F72, offset: 0x24F72, size: 0x8, addend: 0x0, symName: __ZNSt3__122__compressed_pair_elemINS_22__allocator_destructorINS_9allocatorI14crawlerResultsEEEELi1ELb0EEC2B7v160006IS5_vEEOT_, symObjAddr: 0x13EBC, symBinAddr: 0x100015C90, symSize: 0x24 }
  - { offsetInCU: 0x24FB4, offset: 0x24FB4, size: 0x8, addend: 0x0, symName: __ZNKSt3__117__compressed_pairIP14crawlerResultsNS_22__allocator_destructorINS_9allocatorIS1_EEEEE5firstB7v160006Ev, symObjAddr: 0x13EE0, symBinAddr: 0x100015CB4, symSize: 0x24 }
  - { offsetInCU: 0x24FDA, offset: 0x24FDA, size: 0x8, addend: 0x0, symName: __ZNKSt3__122__compressed_pair_elemIP14crawlerResultsLi0ELb0EE5__getB7v160006Ev, symObjAddr: 0x13F04, symBinAddr: 0x100015CD8, symSize: 0x14 }
  - { offsetInCU: 0x25000, offset: 0x25000, size: 0x8, addend: 0x0, symName: __ZNSt3__117__compressed_pairIP14crawlerResultsNS_22__allocator_destructorINS_9allocatorIS1_EEEEE5firstB7v160006Ev, symObjAddr: 0x13F18, symBinAddr: 0x100015CEC, symSize: 0x24 }
  - { offsetInCU: 0x25026, offset: 0x25026, size: 0x8, addend: 0x0, symName: __ZNSt3__122__compressed_pair_elemIP14crawlerResultsLi0ELb0EE5__getB7v160006Ev, symObjAddr: 0x13F3C, symBinAddr: 0x100015D10, symSize: 0x14 }
  - { offsetInCU: 0x2504C, offset: 0x2504C, size: 0x8, addend: 0x0, symName: __ZNSt3__117__compressed_pairIPP14crawlerResultsNS_9allocatorIS2_EEE5firstB7v160006Ev, symObjAddr: 0x13F50, symBinAddr: 0x100015D24, symSize: 0x24 }
  - { offsetInCU: 0x25072, offset: 0x25072, size: 0x8, addend: 0x0, symName: __ZNSt3__122__compressed_pair_elemIPP14crawlerResultsLi0ELb0EE5__getB7v160006Ev, symObjAddr: 0x13F74, symBinAddr: 0x100015D48, symSize: 0x14 }
  - { offsetInCU: 0x25098, offset: 0x25098, size: 0x8, addend: 0x0, symName: __ZNSt3__117__compressed_pairIPP14crawlerResultsRNS_9allocatorIS2_EEE5firstB7v160006Ev, symObjAddr: 0x13F88, symBinAddr: 0x100015D5C, symSize: 0x24 }
  - { offsetInCU: 0x250BE, offset: 0x250BE, size: 0x8, addend: 0x0, symName: __ZNSt3__110unique_ptrIP14crawlerResultsNS_22__allocator_destructorINS_9allocatorIS1_EEEEED2B7v160006Ev, symObjAddr: 0x13FAC, symBinAddr: 0x100015D80, symSize: 0x30 }
  - { offsetInCU: 0x250E8, offset: 0x250E8, size: 0x8, addend: 0x0, symName: __ZNSt3__110unique_ptrIP14crawlerResultsNS_22__allocator_destructorINS_9allocatorIS1_EEEEE5resetB7v160006ES2_, symObjAddr: 0x13FDC, symBinAddr: 0x100015DB0, symSize: 0x78 }
  - { offsetInCU: 0x2512C, offset: 0x2512C, size: 0x8, addend: 0x0, symName: __ZNSt3__117__compressed_pairIP14crawlerResultsNS_22__allocator_destructorINS_9allocatorIS1_EEEEE6secondB7v160006Ev, symObjAddr: 0x14054, symBinAddr: 0x100015E28, symSize: 0x28 }
  - { offsetInCU: 0x25152, offset: 0x25152, size: 0x8, addend: 0x0, symName: __ZNSt3__122__allocator_destructorINS_9allocatorI14crawlerResultsEEEclB7v160006EPS2_, symObjAddr: 0x1407C, symBinAddr: 0x100015E50, symSize: 0x34 }
  - { offsetInCU: 0x25186, offset: 0x25186, size: 0x8, addend: 0x0, symName: __ZNSt3__122__compressed_pair_elemINS_22__allocator_destructorINS_9allocatorI14crawlerResultsEEEELi1ELb0EE5__getB7v160006Ev, symObjAddr: 0x140B0, symBinAddr: 0x100015E84, symSize: 0x14 }
  - { offsetInCU: 0x251AC, offset: 0x251AC, size: 0x8, addend: 0x0, symName: __ZNSt3__114__split_bufferIP14crawlerResultsRNS_9allocatorIS2_EEED2Ev, symObjAddr: 0x140C4, symBinAddr: 0x100015E98, symSize: 0x8C }
  - { offsetInCU: 0x251D8, offset: 0x251D8, size: 0x8, addend: 0x0, symName: __ZNSt3__114__split_bufferIP14crawlerResultsRNS_9allocatorIS2_EEE5clearB7v160006Ev, symObjAddr: 0x14150, symBinAddr: 0x100015F24, symSize: 0x28 }
  - { offsetInCU: 0x251FE, offset: 0x251FE, size: 0x8, addend: 0x0, symName: __ZNKSt3__114__split_bufferIP14crawlerResultsRNS_9allocatorIS2_EEE8capacityB7v160006Ev, symObjAddr: 0x14178, symBinAddr: 0x100015F4C, symSize: 0x40 }
  - { offsetInCU: 0x25224, offset: 0x25224, size: 0x8, addend: 0x0, symName: __ZNSt3__114__split_bufferIP14crawlerResultsRNS_9allocatorIS2_EEE17__destruct_at_endB7v160006EPS2_, symObjAddr: 0x141B8, symBinAddr: 0x100015F8C, symSize: 0x2C }
  - { offsetInCU: 0x25258, offset: 0x25258, size: 0x8, addend: 0x0, symName: __ZNSt3__114__split_bufferIP14crawlerResultsRNS_9allocatorIS2_EEE17__destruct_at_endB7v160006EPS2_NS_17integral_constantIbLb0EEE, symObjAddr: 0x141E4, symBinAddr: 0x100015FB8, symSize: 0x80 }
  - { offsetInCU: 0x25298, offset: 0x25298, size: 0x8, addend: 0x0, symName: __ZNKSt3__114__split_bufferIP14crawlerResultsRNS_9allocatorIS2_EEE9__end_capB7v160006Ev, symObjAddr: 0x14264, symBinAddr: 0x100016038, symSize: 0x28 }
  - { offsetInCU: 0x252BE, offset: 0x252BE, size: 0x8, addend: 0x0, symName: __ZNKSt3__117__compressed_pairIPP14crawlerResultsRNS_9allocatorIS2_EEE5firstB7v160006Ev, symObjAddr: 0x1428C, symBinAddr: 0x100016060, symSize: 0x24 }
  - { offsetInCU: 0x252E4, offset: 0x252E4, size: 0x8, addend: 0x0, symName: __ZNSt3__19allocatorI14crawlerResultsE9constructB7v160006IS1_JRKS1_EEEvPT_DpOT0_, symObjAddr: 0x142B0, symBinAddr: 0x100016084, symSize: 0x30 }
  - { offsetInCU: 0x2533A, offset: 0x2533A, size: 0x8, addend: 0x0, symName: __ZN14crawlerResultsC1ERKS_, symObjAddr: 0x142E0, symBinAddr: 0x1000160B4, symSize: 0x34 }
  - { offsetInCU: 0x2536F, offset: 0x2536F, size: 0x8, addend: 0x0, symName: __ZN14crawlerResultsC2ERKS_, symObjAddr: 0x14314, symBinAddr: 0x1000160E8, symSize: 0x7C }
  - { offsetInCU: 0x253A4, offset: 0x253A4, size: 0x8, addend: 0x0, symName: __ZNKSt3__15queueI14crawlerResultsNS_5dequeIS1_NS_9allocatorIS1_EEEEE5emptyB7v160006Ev, symObjAddr: 0x14390, symBinAddr: 0x100016164, symSize: 0x28 }
  - { offsetInCU: 0x253CA, offset: 0x253CA, size: 0x8, addend: 0x0, symName: __ZNSt3__15queueI14crawlerResultsNS_5dequeIS1_NS_9allocatorIS1_EEEEE5frontB7v160006Ev, symObjAddr: 0x143B8, symBinAddr: 0x10001618C, symSize: 0x24 }
  - { offsetInCU: 0x253F0, offset: 0x253F0, size: 0x8, addend: 0x0, symName: __ZNSt3__15queueI14crawlerResultsNS_5dequeIS1_NS_9allocatorIS1_EEEEE3popB7v160006Ev, symObjAddr: 0x143DC, symBinAddr: 0x1000161B0, symSize: 0x24 }
  - { offsetInCU: 0x25416, offset: 0x25416, size: 0x8, addend: 0x0, symName: __ZNKSt3__15dequeI14crawlerResultsNS_9allocatorIS1_EEE5emptyB7v160006Ev, symObjAddr: 0x14400, symBinAddr: 0x1000161D4, symSize: 0x30 }
  - { offsetInCU: 0x2543C, offset: 0x2543C, size: 0x8, addend: 0x0, symName: __ZNSt3__15dequeI14crawlerResultsNS_9allocatorIS1_EEE5frontEv, symObjAddr: 0x14430, symBinAddr: 0x100016204, symSize: 0x58 }
  - { offsetInCU: 0x25464, offset: 0x25464, size: 0x8, addend: 0x0, symName: __ZNSt3__15dequeI14crawlerResultsNS_9allocatorIS1_EEE9pop_frontEv, symObjAddr: 0x14488, symBinAddr: 0x10001625C, symSize: 0xB4 }
  - { offsetInCU: 0x2549B, offset: 0x2549B, size: 0x8, addend: 0x0, symName: __ZNSt3__15dequeI14crawlerResultsNS_9allocatorIS1_EEE26__maybe_remove_front_spareB7v160006Eb, symObjAddr: 0x14550, symBinAddr: 0x100016324, symSize: 0xDC }
  - { offsetInCU: 0x254D0, offset: 0x254D0, size: 0x8, addend: 0x0, symName: __ZNKSt3__15dequeI14crawlerResultsNS_9allocatorIS1_EEE20__front_spare_blocksB7v160006Ev, symObjAddr: 0x1462C, symBinAddr: 0x100016400, symSize: 0x2C }
  - { offsetInCU: 0x52, offset: 0x2589D, size: 0x8, addend: 0x0, symName: __ZL14TagsRecognized, symObjAddr: 0x1A0C8, symBinAddr: 0x10002C8B0, symSize: 0x0 }
  - { offsetInCU: 0x1CF0, offset: 0x2753B, size: 0x8, addend: 0x0, symName: __Z7isspacei, symObjAddr: 0x29C0, symBinAddr: 0x1000195C4, symSize: 0x28 }
  - { offsetInCU: 0x2DB5, offset: 0x28600, size: 0x8, addend: 0x0, symName: __ZN10HtmlParser10appendWordERK6stringR6vectorIS0_Eb, symObjAddr: 0x3C, symBinAddr: 0x1000172EC, symSize: 0x78 }
  - { offsetInCU: 0x2E07, offset: 0x28652, size: 0x8, addend: 0x0, symName: __ZNK6vectorI6stringE4backEv, symObjAddr: 0xD8, symBinAddr: 0x100017364, symSize: 0xAC }
  - { offsetInCU: 0x2E2D, offset: 0x28678, size: 0x8, addend: 0x0, symName: __ZN6stringpLERKS_, symObjAddr: 0x184, symBinAddr: 0x100017410, symSize: 0x198 }
  - { offsetInCU: 0x2EB5, offset: 0x28700, size: 0x8, addend: 0x0, symName: __ZN10HtmlParser10appendWordEPKclR6vectorI6stringE, symObjAddr: 0x3D0, symBinAddr: 0x1000175A8, symSize: 0x40 }
  - { offsetInCU: 0x2F11, offset: 0x2875C, size: 0x8, addend: 0x0, symName: __ZN6vectorI6stringE12emplace_backIJRPKcRlEEEvDpOT_, symObjAddr: 0x410, symBinAddr: 0x1000175E8, symSize: 0xC4 }
  - { offsetInCU: 0x2F65, offset: 0x287B0, size: 0x8, addend: 0x0, symName: __ZN10HtmlParser13complete_linkE6stringS0_, symObjAddr: 0x4D4, symBinAddr: 0x1000176AC, symSize: 0x348 }
  - { offsetInCU: 0x2FC0, offset: 0x2880B, size: 0x8, addend: 0x0, symName: __ZN6stringplEPKc, symObjAddr: 0xC4C, symBinAddr: 0x1000179F4, symSize: 0x84 }
  - { offsetInCU: 0x2FF4, offset: 0x2883F, size: 0x8, addend: 0x0, symName: __ZN6stringplERKS_, symObjAddr: 0xCD0, symBinAddr: 0x100017A78, symSize: 0x44 }
  - { offsetInCU: 0x3028, offset: 0x28873, size: 0x8, addend: 0x0, symName: __ZN10HtmlParserC2EPKcm, symObjAddr: 0xD14, symBinAddr: 0x100017ABC, symSize: 0x19D0 }
  - { offsetInCU: 0x3277, offset: 0x28AC2, size: 0x8, addend: 0x0, symName: __ZN6vectorI4LinkEC1Ev, symObjAddr: 0x2734, symBinAddr: 0x1000194B0, symSize: 0x2C }
  - { offsetInCU: 0x32A1, offset: 0x28AEC, size: 0x8, addend: 0x0, symName: __ZN6vectorI4LinkE9push_backERKS0_, symObjAddr: 0x28AC, symBinAddr: 0x1000194DC, symSize: 0xB4 }
  - { offsetInCU: 0x32D5, offset: 0x28B20, size: 0x8, addend: 0x0, symName: __ZN4LinkC1E6string, symObjAddr: 0x2960, symBinAddr: 0x100019590, symSize: 0x34 }
  - { offsetInCU: 0x330E, offset: 0x28B59, size: 0x8, addend: 0x0, symName: __ZNK6string5emptyEv, symObjAddr: 0x29E8, symBinAddr: 0x1000195EC, symSize: 0x34 }
  - { offsetInCU: 0x3334, offset: 0x28B7F, size: 0x8, addend: 0x0, symName: __ZNK6vectorI4LinkE4backEv, symObjAddr: 0x2A1C, symBinAddr: 0x100019620, symSize: 0xAC }
  - { offsetInCU: 0x335A, offset: 0x28BA5, size: 0x8, addend: 0x0, symName: __ZN6vectorI6stringEaSERKS1_, symObjAddr: 0x2AC8, symBinAddr: 0x1000196CC, symSize: 0x2B0 }
  - { offsetInCU: 0x33AA, offset: 0x28BF5, size: 0x8, addend: 0x0, symName: __ZN6vectorI6stringE5clearEv, symObjAddr: 0x2DA4, symBinAddr: 0x10001997C, symSize: 0xB8 }
  - { offsetInCU: 0x33D0, offset: 0x28C1B, size: 0x8, addend: 0x0, symName: __ZN6string6assignEPKcm, symObjAddr: 0x2E5C, symBinAddr: 0x100019A34, symSize: 0xE8 }
  - { offsetInCU: 0x3436, offset: 0x28C81, size: 0x8, addend: 0x0, symName: __ZN6vectorI6stringE12emplace_backIJRPKclEEEvDpOT_, symObjAddr: 0x2F44, symBinAddr: 0x100019B1C, symSize: 0xC4 }
  - { offsetInCU: 0x348A, offset: 0x28CD5, size: 0x8, addend: 0x0, symName: __ZN10HtmlParserC1EPKcm, symObjAddr: 0x3034, symBinAddr: 0x100019BE0, symSize: 0x3C }
  - { offsetInCU: 0x34D2, offset: 0x28D1D, size: 0x8, addend: 0x0, symName: __ZN4LinkC2E6string, symObjAddr: 0x3450, symBinAddr: 0x100019C1C, symSize: 0x68 }
  - { offsetInCU: 0x350B, offset: 0x28D56, size: 0x8, addend: 0x0, symName: __Z8__istypeim, symObjAddr: 0x34F0, symBinAddr: 0x100019C84, symSize: 0x8C }
  - { offsetInCU: 0x3545, offset: 0x28D90, size: 0x8, addend: 0x0, symName: __Z7isasciii, symObjAddr: 0x357C, symBinAddr: 0x100019D10, symSize: 0x24 }
  - { offsetInCU: 0x3571, offset: 0x28DBC, size: 0x8, addend: 0x0, symName: __ZN6vectorI4LinkEC2Ev, symObjAddr: 0x39AC, symBinAddr: 0x100019D34, symSize: 0x30 }
  - { offsetInCU: 0x359B, offset: 0x28DE6, size: 0x8, addend: 0x0, symName: __ZN6vectorI4LinkE5resetEv, symObjAddr: 0x39DC, symBinAddr: 0x100019D64, symSize: 0xB8 }
  - { offsetInCU: 0x35C1, offset: 0x28E0C, size: 0x8, addend: 0x0, symName: __ZN6vectorI4LinkE7reserveEm, symObjAddr: 0x3B44, symBinAddr: 0x100019E1C, symSize: 0x274 }
  - { offsetInCU: 0x3626, offset: 0x28E71, size: 0x8, addend: 0x0, symName: __ZN4LinkaSERKS_, symObjAddr: 0x3DB8, symBinAddr: 0x10001A090, symSize: 0x58 }
  - { offsetInCU: 0x3657, offset: 0x28EA2, size: 0x8, addend: 0x0, symName: __ZN4LinkC1Ev, symObjAddr: 0x3E10, symBinAddr: 0x10001A0E8, symSize: 0x2C }
  - { offsetInCU: 0x3681, offset: 0x28ECC, size: 0x8, addend: 0x0, symName: __ZN4LinkC2Ev, symObjAddr: 0x3E3C, symBinAddr: 0x10001A114, symSize: 0x68 }
  - { offsetInCU: 0x36AB, offset: 0x28EF6, size: 0x8, addend: 0x0, symName: __ZN6vectorI6stringEC1ERKS1_, symObjAddr: 0x3EA4, symBinAddr: 0x10001A17C, symSize: 0x34 }
  - { offsetInCU: 0x36E3, offset: 0x28F2E, size: 0x8, addend: 0x0, symName: __ZN6vectorI6stringEC2ERKS1_, symObjAddr: 0x3ED8, symBinAddr: 0x10001A1B0, symSize: 0x208 }
  - { offsetInCU: 0x52, offset: 0x28FF8, size: 0x8, addend: 0x0, symName: __ZL14TagsRecognized, symObjAddr: 0x7A08, symBinAddr: 0x10002D160, symSize: 0x0 }
  - { offsetInCU: 0xC96, offset: 0x29C3C, size: 0x8, addend: 0x0, symName: __Z7toloweri, symObjAddr: 0x2B4, symBinAddr: 0x10001B374, symSize: 0x24 }
  - { offsetInCU: 0x2A37, offset: 0x2B9DD, size: 0x8, addend: 0x0, symName: __Z17LookupPossibleTagPKcS0_, symObjAddr: 0x3C, symBinAddr: 0x10001B0FC, symSize: 0x278 }
  - { offsetInCU: 0x2A1D, offset: 0x2E4E4, size: 0x8, addend: 0x0, symName: __ZNSt3__124__put_character_sequenceB7v160006IcNS_11char_traitsIcEEEERNS_13basic_ostreamIT_T0_EES7_PKS4_m, symObjAddr: 0x18BC, symBinAddr: 0x10001D104, symSize: 0x1EC }
  - { offsetInCU: 0x402E, offset: 0x2FAF5, size: 0x8, addend: 0x0, symName: __ZNSt3__1lsB7v160006INS_11char_traitsIcEEEERNS_13basic_ostreamIcT_EES6_PKc, symObjAddr: 0xA50, symBinAddr: 0x10001C978, symSize: 0x48 }
  - { offsetInCU: 0x4074, offset: 0x2FB3B, size: 0x8, addend: 0x0, symName: __ZNSt3__116__pad_and_outputB7v160006IcNS_11char_traitsIcEEEENS_19ostreambuf_iteratorIT_T0_EES6_PKS4_S8_S8_RNS_8ios_baseES4_, symObjAddr: 0x1AF8, symBinAddr: 0x10001D340, symSize: 0x240 }
  - { offsetInCU: 0x4144, offset: 0x2FC0B, size: 0x8, addend: 0x0, symName: __ZNSt3__119__debug_db_insert_cB7v160006INS_12basic_stringIcNS_11char_traitsIcEENS_9allocatorIcEEEEEEvPT_, symObjAddr: 0x1FB8, symBinAddr: 0x10001D7F4, symSize: 0x10 }
  - { offsetInCU: 0x4175, offset: 0x2FC3C, size: 0x8, addend: 0x0, symName: __ZNSt3__112__to_addressB7v160006IKcEEPT_S3_, symObjAddr: 0x2084, symBinAddr: 0x10001D8C0, symSize: 0x14 }
  - { offsetInCU: 0x41DD, offset: 0x2FCA4, size: 0x8, addend: 0x0, symName: __ZNSt3__118__constexpr_strlenB7v160006EPKc, symObjAddr: 0x239C, symBinAddr: 0x10001DAF0, symSize: 0x24 }
  - { offsetInCU: 0x64D7, offset: 0x31F9E, size: 0x8, addend: 0x0, symName: __ZN7CrawlerC2Ev, symObjAddr: 0x0, symBinAddr: 0x10001C0DC, symSize: 0xD4 }
  - { offsetInCU: 0x6503, offset: 0x31FCA, size: 0x8, addend: 0x0, symName: __ZN7CrawlerC1Ev, symObjAddr: 0x270, symBinAddr: 0x10001C1B0, symSize: 0x2C }
  - { offsetInCU: 0x652F, offset: 0x31FF6, size: 0x8, addend: 0x0, symName: __ZN7Crawler7freeSSLEv, symObjAddr: 0x29C, symBinAddr: 0x10001C1DC, symSize: 0xB0 }
  - { offsetInCU: 0x65D3, offset: 0x3209A, size: 0x8, addend: 0x0, symName: __ZN7Crawler9verifySSLEv, symObjAddr: 0x34C, symBinAddr: 0x10001C28C, symSize: 0x308 }
  - { offsetInCU: 0x66AF, offset: 0x32176, size: 0x8, addend: 0x0, symName: __ZN7Crawler15setupConnectionE6string, symObjAddr: 0x654, symBinAddr: 0x10001C594, symSize: 0x3E4 }
  - { offsetInCU: 0x675D, offset: 0x32224, size: 0x8, addend: 0x0, symName: __ZN7Crawler5crawlE9ParsedUrlPcRm, symObjAddr: 0xB1C, symBinAddr: 0x10001C9C0, symSize: 0x6B4 }
  - { offsetInCU: 0x6808, offset: 0x322CF, size: 0x8, addend: 0x0, symName: __ZNK6stringneERKS_, symObjAddr: 0x1248, symBinAddr: 0x10001D074, symSize: 0x34 }
  - { offsetInCU: 0x683D, offset: 0x32304, size: 0x8, addend: 0x0, symName: __ZN7CrawlerD1Ev, symObjAddr: 0x133C, symBinAddr: 0x10001D0A8, symSize: 0x2C }
  - { offsetInCU: 0x6869, offset: 0x32330, size: 0x8, addend: 0x0, symName: __ZN7CrawlerD2Ev, symObjAddr: 0x188C, symBinAddr: 0x10001D0D4, symSize: 0x30 }
  - { offsetInCU: 0x6896, offset: 0x3235D, size: 0x8, addend: 0x0, symName: __ZNSt3__111char_traitsIcE6lengthEPKc, symObjAddr: 0x1AA8, symBinAddr: 0x10001D2F0, symSize: 0x34 }
  - { offsetInCU: 0x68D6, offset: 0x3239D, size: 0x8, addend: 0x0, symName: __ZNKSt3__113basic_ostreamIcNS_11char_traitsIcEEE6sentrycvbB7v160006Ev, symObjAddr: 0x1ADC, symBinAddr: 0x10001D324, symSize: 0x1C }
  - { offsetInCU: 0x68FC, offset: 0x323C3, size: 0x8, addend: 0x0, symName: __ZNSt3__119ostreambuf_iteratorIcNS_11char_traitsIcEEEC1B7v160006ERNS_13basic_ostreamIcS2_EE, symObjAddr: 0x1D38, symBinAddr: 0x10001D580, symSize: 0x34 }
  - { offsetInCU: 0x6935, offset: 0x323FC, size: 0x8, addend: 0x0, symName: __ZNKSt3__18ios_base5flagsB7v160006Ev, symObjAddr: 0x1D6C, symBinAddr: 0x10001D5B4, symSize: 0x18 }
  - { offsetInCU: 0x695D, offset: 0x32424, size: 0x8, addend: 0x0, symName: __ZNKSt3__19basic_iosIcNS_11char_traitsIcEEE4fillB7v160006Ev, symObjAddr: 0x1D84, symBinAddr: 0x10001D5CC, symSize: 0x64 }
  - { offsetInCU: 0x6984, offset: 0x3244B, size: 0x8, addend: 0x0, symName: __ZNKSt3__119ostreambuf_iteratorIcNS_11char_traitsIcEEE6failedB7v160006Ev, symObjAddr: 0x1DE8, symBinAddr: 0x10001D630, symSize: 0x24 }
  - { offsetInCU: 0x69AA, offset: 0x32471, size: 0x8, addend: 0x0, symName: __ZNSt3__19basic_iosIcNS_11char_traitsIcEEE8setstateB7v160006Ej, symObjAddr: 0x1E0C, symBinAddr: 0x10001D654, symSize: 0x2C }
  - { offsetInCU: 0x69E0, offset: 0x324A7, size: 0x8, addend: 0x0, symName: __ZNKSt3__18ios_base5widthB7v160006Ev, symObjAddr: 0x1E44, symBinAddr: 0x10001D680, symSize: 0x18 }
  - { offsetInCU: 0x6A07, offset: 0x324CE, size: 0x8, addend: 0x0, symName: __ZNSt3__115basic_streambufIcNS_11char_traitsIcEEE5sputnB7v160006EPKcl, symObjAddr: 0x1E5C, symBinAddr: 0x10001D698, symSize: 0x3C }
  - { offsetInCU: 0x6A49, offset: 0x32510, size: 0x8, addend: 0x0, symName: __ZNSt3__112basic_stringIcNS_11char_traitsIcEENS_9allocatorIcEEEC1B7v160006Emc, symObjAddr: 0x1E98, symBinAddr: 0x10001D6D4, symSize: 0x3C }
  - { offsetInCU: 0x6A91, offset: 0x32558, size: 0x8, addend: 0x0, symName: __ZNKSt3__112basic_stringIcNS_11char_traitsIcEENS_9allocatorIcEEE4dataB7v160006Ev, symObjAddr: 0x1ED4, symBinAddr: 0x10001D710, symSize: 0x28 }
  - { offsetInCU: 0x6AB8, offset: 0x3257F, size: 0x8, addend: 0x0, symName: __ZNSt3__18ios_base5widthB7v160006El, symObjAddr: 0x1EFC, symBinAddr: 0x10001D738, symSize: 0x2C }
  - { offsetInCU: 0x6AFD, offset: 0x325C4, size: 0x8, addend: 0x0, symName: __ZNSt3__112basic_stringIcNS_11char_traitsIcEENS_9allocatorIcEEEC2B7v160006Emc, symObjAddr: 0x1F28, symBinAddr: 0x10001D764, symSize: 0x54 }
  - { offsetInCU: 0x6B4A, offset: 0x32611, size: 0x8, addend: 0x0, symName: __ZNSt3__117__compressed_pairINS_12basic_stringIcNS_11char_traitsIcEENS_9allocatorIcEEE5__repES5_EC1B7v160006INS_18__default_init_tagESA_EEOT_OT0_, symObjAddr: 0x1F7C, symBinAddr: 0x10001D7B8, symSize: 0x3C }
  - { offsetInCU: 0x6BA2, offset: 0x32669, size: 0x8, addend: 0x0, symName: __ZNSt3__117__compressed_pairINS_12basic_stringIcNS_11char_traitsIcEENS_9allocatorIcEEE5__repES5_EC2B7v160006INS_18__default_init_tagESA_EEOT_OT0_, symObjAddr: 0x1FC8, symBinAddr: 0x10001D804, symSize: 0x3C }
  - { offsetInCU: 0x6BFB, offset: 0x326C2, size: 0x8, addend: 0x0, symName: __ZNSt3__122__compressed_pair_elemINS_12basic_stringIcNS_11char_traitsIcEENS_9allocatorIcEEE5__repELi0ELb0EEC2B7v160006ENS_18__default_init_tagE, symObjAddr: 0x2004, symBinAddr: 0x10001D840, symSize: 0x14 }
  - { offsetInCU: 0x6C2E, offset: 0x326F5, size: 0x8, addend: 0x0, symName: __ZNSt3__122__compressed_pair_elemINS_9allocatorIcEELi1ELb1EEC2B7v160006ENS_18__default_init_tagE, symObjAddr: 0x2018, symBinAddr: 0x10001D854, symSize: 0x2C }
  - { offsetInCU: 0x6C62, offset: 0x32729, size: 0x8, addend: 0x0, symName: __ZNSt3__19allocatorIcEC2B7v160006Ev, symObjAddr: 0x2044, symBinAddr: 0x10001D880, symSize: 0x2C }
  - { offsetInCU: 0x6C8D, offset: 0x32754, size: 0x8, addend: 0x0, symName: __ZNSt3__116__non_trivial_ifILb1ENS_9allocatorIcEEEC2B7v160006Ev, symObjAddr: 0x2070, symBinAddr: 0x10001D8AC, symSize: 0x14 }
  - { offsetInCU: 0x6CB6, offset: 0x3277D, size: 0x8, addend: 0x0, symName: __ZNKSt3__112basic_stringIcNS_11char_traitsIcEENS_9allocatorIcEEE13__get_pointerB7v160006Ev, symObjAddr: 0x2098, symBinAddr: 0x10001D8D4, symSize: 0x54 }
  - { offsetInCU: 0x6CDC, offset: 0x327A3, size: 0x8, addend: 0x0, symName: __ZNKSt3__112basic_stringIcNS_11char_traitsIcEENS_9allocatorIcEEE9__is_longB7v160006Ev, symObjAddr: 0x20EC, symBinAddr: 0x10001D928, symSize: 0x38 }
  - { offsetInCU: 0x6D02, offset: 0x327C9, size: 0x8, addend: 0x0, symName: __ZNKSt3__112basic_stringIcNS_11char_traitsIcEENS_9allocatorIcEEE18__get_long_pointerB7v160006Ev, symObjAddr: 0x2124, symBinAddr: 0x10001D960, symSize: 0x28 }
  - { offsetInCU: 0x6D28, offset: 0x327EF, size: 0x8, addend: 0x0, symName: __ZNKSt3__112basic_stringIcNS_11char_traitsIcEENS_9allocatorIcEEE19__get_short_pointerB7v160006Ev, symObjAddr: 0x214C, symBinAddr: 0x10001D988, symSize: 0x28 }
  - { offsetInCU: 0x6D4E, offset: 0x32815, size: 0x8, addend: 0x0, symName: __ZNKSt3__117__compressed_pairINS_12basic_stringIcNS_11char_traitsIcEENS_9allocatorIcEEE5__repES5_E5firstB7v160006Ev, symObjAddr: 0x2174, symBinAddr: 0x10001D9B0, symSize: 0x24 }
  - { offsetInCU: 0x6D74, offset: 0x3283B, size: 0x8, addend: 0x0, symName: __ZNKSt3__122__compressed_pair_elemINS_12basic_stringIcNS_11char_traitsIcEENS_9allocatorIcEEE5__repELi0ELb0EE5__getB7v160006Ev, symObjAddr: 0x2198, symBinAddr: 0x10001D9D4, symSize: 0x14 }
  - { offsetInCU: 0x6D9B, offset: 0x32862, size: 0x8, addend: 0x0, symName: __ZNSt3__114pointer_traitsIPKcE10pointer_toB7v160006ERS1_, symObjAddr: 0x21AC, symBinAddr: 0x10001D9E8, symSize: 0x14 }
  - { offsetInCU: 0x6DBD, offset: 0x32884, size: 0x8, addend: 0x0, symName: __ZNSt3__119ostreambuf_iteratorIcNS_11char_traitsIcEEEC2B7v160006ERNS_13basic_ostreamIcS2_EE, symObjAddr: 0x21C0, symBinAddr: 0x10001D9FC, symSize: 0x54 }
  - { offsetInCU: 0x6DF6, offset: 0x328BD, size: 0x8, addend: 0x0, symName: __ZNKSt3__19basic_iosIcNS_11char_traitsIcEEE5rdbufB7v160006Ev, symObjAddr: 0x2214, symBinAddr: 0x10001DA50, symSize: 0x24 }
  - { offsetInCU: 0x6E1D, offset: 0x328E4, size: 0x8, addend: 0x0, symName: __ZNKSt3__18ios_base5rdbufB7v160006Ev, symObjAddr: 0x2238, symBinAddr: 0x10001DA74, symSize: 0x18 }
  - { offsetInCU: 0x6E44, offset: 0x3290B, size: 0x8, addend: 0x0, symName: __ZNSt3__111char_traitsIcE11eq_int_typeEii, symObjAddr: 0x2250, symBinAddr: 0x10001DA8C, symSize: 0x28 }
  - { offsetInCU: 0x6E75, offset: 0x3293C, size: 0x8, addend: 0x0, symName: __ZNSt3__111char_traitsIcE3eofEv, symObjAddr: 0x2278, symBinAddr: 0x10001DAB4, symSize: 0x8 }
  - { offsetInCU: 0x6E89, offset: 0x32950, size: 0x8, addend: 0x0, symName: __ZNSt3__18ios_base8setstateB7v160006Ej, symObjAddr: 0x2368, symBinAddr: 0x10001DABC, symSize: 0x34 }
  - { offsetInCU: 0x5E51, offset: 0x388C7, size: 0x8, addend: 0x0, symName: __ZlsRNSt3__113basic_ostreamIcNS_11char_traitsIcEEEERK6string, symObjAddr: 0x0, symBinAddr: 0x10001DB14, symSize: 0x40 }
  - { offsetInCU: 0x5E95, offset: 0x3890B, size: 0x8, addend: 0x0, symName: __ZNK6string4cstrEv, symObjAddr: 0x88, symBinAddr: 0x10001DB54, symSize: 0x18 }
  - { offsetInCU: 0x52, offset: 0x389AB, size: 0x8, addend: 0x0, symName: __ZL14TagsRecognized, symObjAddr: 0x51840, symBinAddr: 0x10002DA10, symSize: 0x0 }
  - { offsetInCU: 0x7C, offset: 0x389D5, size: 0x8, addend: 0x0, symName: __Z7RoundUpmm, symObjAddr: 0x3C, symBinAddr: 0x10001DB6C, symSize: 0xF8 }
  - { offsetInCU: 0xA5, offset: 0x389FE, size: 0x8, addend: 0x0, symName: __ZZ7RoundUpmmE7oneless, symObjAddr: 0x520F0, symBinAddr: 0x10002E2C0, symSize: 0x0 }
  - { offsetInCU: 0xBB, offset: 0x38A14, size: 0x8, addend: 0x0, symName: __ZZ7RoundUpmmE4mask, symObjAddr: 0x52100, symBinAddr: 0x10002E2D0, symSize: 0x0 }
  - { offsetInCU: 0x152E, offset: 0x39E87, size: 0x8, addend: 0x0, symName: __ZNSt3__14__fs10filesystem5beginB7v160006ENS1_18directory_iteratorE, symObjAddr: 0xBD8, symBinAddr: 0x10001E708, symSize: 0x38 }
  - { offsetInCU: 0x155B, offset: 0x39EB4, size: 0x8, addend: 0x0, symName: __ZNSt3__14__fs10filesystem3endB7v160006ENS1_18directory_iteratorE, symObjAddr: 0xC70, symBinAddr: 0x10001E7A0, symSize: 0x34 }
  - { offsetInCU: 0x1584, offset: 0x39EDD, size: 0x8, addend: 0x0, symName: __ZNSt3__14__fs10filesystemneB7v160006ERKNS1_18directory_iteratorES4_, symObjAddr: 0xCA4, symBinAddr: 0x10001E7D4, symSize: 0x34 }
  - { offsetInCU: 0x15BE, offset: 0x39F17, size: 0x8, addend: 0x0, symName: __ZNSt3__14__fs10filesystemeqB7v160006ERKNS1_18directory_iteratorES4_, symObjAddr: 0x4330, symBinAddr: 0x1000219DC, symSize: 0x30 }
  - { offsetInCU: 0xB60D, offset: 0x43F66, size: 0x8, addend: 0x0, symName: __ZNSt3__13maxB7v160006IiEERKT_S3_S3_, symObjAddr: 0x23BC, symBinAddr: 0x10001FB2C, symSize: 0x2C }
  - { offsetInCU: 0xB650, offset: 0x43FA9, size: 0x8, addend: 0x0, symName: __ZNSt3__134__libcpp_atomic_refcount_incrementB7v160006IlEET_RS1_, symObjAddr: 0x40CC, symBinAddr: 0x100021778, symSize: 0x30 }
  - { offsetInCU: 0xB685, offset: 0x43FDE, size: 0x8, addend: 0x0, symName: __ZNSt3__134__libcpp_atomic_refcount_decrementB7v160006IlEET_RS1_, symObjAddr: 0x4260, symBinAddr: 0x10002190C, symSize: 0x30 }
  - { offsetInCU: 0xB6BA, offset: 0x44013, size: 0x8, addend: 0x0, symName: __ZNSt3__1eqB7v160006INS_4__fs10filesystem12__dir_streamES3_EEbRKNS_10shared_ptrIT_EERKNS4_IT0_EE, symObjAddr: 0x4360, symBinAddr: 0x100021A0C, symSize: 0x48 }
  - { offsetInCU: 0xB709, offset: 0x44062, size: 0x8, addend: 0x0, symName: __ZNSt3__115__debug_db_swapB7v160006INS_12basic_stringIcNS_11char_traitsIcEENS_9allocatorIcEEEEEEvPT_S8_, symObjAddr: 0x4754, symBinAddr: 0x100021CB4, symSize: 0x14 }
  - { offsetInCU: 0xB748, offset: 0x440A1, size: 0x8, addend: 0x0, symName: __ZNSt3__19make_pairB7v160006IRmRKmEENS_4pairINS_18__unwrap_ref_decayIT_E4typeENS5_IT0_E4typeEEEOS6_OS9_, symObjAddr: 0x5370, symBinAddr: 0x1000220E0, symSize: 0x38 }
  - { offsetInCU: 0xB7BB, offset: 0x44114, size: 0x8, addend: 0x0, symName: __ZNSt3__18distanceB7v160006IPKcEENS_15iterator_traitsIT_E15difference_typeES4_S4_, symObjAddr: 0x5C14, symBinAddr: 0x1000228A0, symSize: 0x2C }
  - { offsetInCU: 0xB7FE, offset: 0x44157, size: 0x8, addend: 0x0, symName: __ZNSt3__110__distanceB7v160006IPKcEENS_15iterator_traitsIT_E15difference_typeES4_S4_NS_26random_access_iterator_tagE, symObjAddr: 0x5E98, symBinAddr: 0x100022B24, symSize: 0x20 }
  - { offsetInCU: 0xB87E, offset: 0x441D7, size: 0x8, addend: 0x0, symName: __ZNSt3__119__allocate_at_leastB7v160006INS_9allocatorIcEEEENS_19__allocation_resultINS_16allocator_traitsIT_E7pointerEEERS5_m, symObjAddr: 0x6330, symBinAddr: 0x100022FBC, symSize: 0x40 }
  - { offsetInCU: 0xB8C1, offset: 0x4421A, size: 0x8, addend: 0x0, symName: __ZNSt3__13maxB7v160006IiNS_6__lessIiiEEEERKT_S5_S5_T0_, symObjAddr: 0x7238, symBinAddr: 0x100023244, symSize: 0x54 }
  - { offsetInCU: 0xF235, offset: 0x47B8E, size: 0x8, addend: 0x0, symName: __ZN16IndexReadHandler4FindEPKc, symObjAddr: 0x134, symBinAddr: 0x10001DC64, symSize: 0x54 }
  - { offsetInCU: 0xF295, offset: 0x47BEE, size: 0x8, addend: 0x0, symName: __ZNK9IndexBlob4FindEPKc, symObjAddr: 0x188, symBinAddr: 0x10001DCB8, symSize: 0x128 }
  - { offsetInCU: 0xF306, offset: 0x47C5F, size: 0x8, addend: 0x0, symName: __ZNK11SerialTuple5ValueEv, symObjAddr: 0x2B0, symBinAddr: 0x10001DDE0, symSize: 0x1C }
  - { offsetInCU: 0xF32C, offset: 0x47C85, size: 0x8, addend: 0x0, symName: __ZNK17SerialPostingList7getPostEm, symObjAddr: 0x2CC, symBinAddr: 0x10001DDFC, symSize: 0x5C }
  - { offsetInCU: 0xF360, offset: 0x47CB9, size: 0x8, addend: 0x0, symName: __ZN16IndexReadHandler9ReadIndexEPKc, symObjAddr: 0x328, symBinAddr: 0x10001DE58, symSize: 0xD8 }
  - { offsetInCU: 0xF396, offset: 0x47CEF, size: 0x8, addend: 0x0, symName: __ZN16IndexReadHandler8FileSizeEi, symObjAddr: 0x400, symBinAddr: 0x10001DF30, symSize: 0x3C }
  - { offsetInCU: 0xF3CB, offset: 0x47D24, size: 0x8, addend: 0x0, symName: __ZN17IndexWriteHandler10WriteIndexEv, symObjAddr: 0x43C, symBinAddr: 0x10001DF6C, symSize: 0x5C }
  - { offsetInCU: 0xF40F, offset: 0x47D68, size: 0x8, addend: 0x0, symName: __ZN5Index12optimizeDictEv, symObjAddr: 0x498, symBinAddr: 0x10001DFC8, symSize: 0x30 }
  - { offsetInCU: 0xF435, offset: 0x47D8E, size: 0x8, addend: 0x0, symName: __ZN9IndexBlob6CreateEP5Index, symObjAddr: 0x4C8, symBinAddr: 0x10001DFF8, symSize: 0x27C }
  - { offsetInCU: 0xF552, offset: 0x47EAB, size: 0x8, addend: 0x0, symName: __Z9nextChunkPKc, symObjAddr: 0x744, symBinAddr: 0x10001E274, symSize: 0x3F0 }
  - { offsetInCU: 0xF60F, offset: 0x47F68, size: 0x8, addend: 0x0, symName: __ZNSt3__14__fs10filesystem4pathC1B7v160006IPKcvEERKT_NS2_6formatE, symObjAddr: 0xB34, symBinAddr: 0x10001E664, symSize: 0x3C }
  - { offsetInCU: 0xF65D, offset: 0x47FB6, size: 0x8, addend: 0x0, symName: __ZNSt3__14__fs10filesystem18directory_iteratorC1B7v160006ERKNS1_4pathE, symObjAddr: 0xB70, symBinAddr: 0x10001E6A0, symSize: 0x3C }
  - { offsetInCU: 0xF695, offset: 0x47FEE, size: 0x8, addend: 0x0, symName: __ZNSt3__14__fs10filesystem4pathD1B7v160006Ev, symObjAddr: 0xBAC, symBinAddr: 0x10001E6DC, symSize: 0x2C }
  - { offsetInCU: 0xF6BF, offset: 0x48018, size: 0x8, addend: 0x0, symName: __ZNSt3__14__fs10filesystem18directory_iteratorC1B7v160006ERKS2_, symObjAddr: 0xC10, symBinAddr: 0x10001E740, symSize: 0x34 }
  - { offsetInCU: 0xF6F3, offset: 0x4804C, size: 0x8, addend: 0x0, symName: __ZNSt3__14__fs10filesystem18directory_iteratorD1B7v160006Ev, symObjAddr: 0xC44, symBinAddr: 0x10001E774, symSize: 0x2C }
  - { offsetInCU: 0xF71D, offset: 0x48076, size: 0x8, addend: 0x0, symName: __ZNKSt3__14__fs10filesystem18directory_iteratordeB7v160006Ev, symObjAddr: 0xCD8, symBinAddr: 0x10001E808, symSize: 0x24 }
  - { offsetInCU: 0xF743, offset: 0x4809C, size: 0x8, addend: 0x0, symName: __ZNKSt3__14__fs10filesystem15directory_entry4pathB7v160006Ev, symObjAddr: 0xCFC, symBinAddr: 0x10001E82C, symSize: 0x14 }
  - { offsetInCU: 0xF769, offset: 0x480C2, size: 0x8, addend: 0x0, symName: __ZNKSt3__14__fs10filesystem4path8filenameB7v160006Ev, symObjAddr: 0xD10, symBinAddr: 0x10001E840, symSize: 0x60 }
  - { offsetInCU: 0xF78F, offset: 0x480E8, size: 0x8, addend: 0x0, symName: __ZNKSt3__14__fs10filesystem4path5c_strB7v160006Ev, symObjAddr: 0xD70, symBinAddr: 0x10001E8A0, symSize: 0x24 }
  - { offsetInCU: 0xF7B5, offset: 0x4810E, size: 0x8, addend: 0x0, symName: __ZNSt3__14__fs10filesystem18directory_iteratorppB7v160006Ev, symObjAddr: 0xD94, symBinAddr: 0x10001E8C4, symSize: 0x28 }
  - { offsetInCU: 0xF7DB, offset: 0x48134, size: 0x8, addend: 0x0, symName: __ZN12IndexHandler8UpdateIHEv, symObjAddr: 0xE60, symBinAddr: 0x10001E8EC, symSize: 0x158 }
  - { offsetInCU: 0xF81F, offset: 0x48178, size: 0x8, addend: 0x0, symName: __ZN12IndexHandlerC2EPKc, symObjAddr: 0x1128, symBinAddr: 0x10001EA44, symSize: 0x13C }
  - { offsetInCU: 0xF86E, offset: 0x481C7, size: 0x8, addend: 0x0, symName: __ZN5IndexC1Ev, symObjAddr: 0x12BC, symBinAddr: 0x10001EB80, symSize: 0x2C }
  - { offsetInCU: 0xF898, offset: 0x481F1, size: 0x8, addend: 0x0, symName: __ZN12IndexHandlerC1EPKc, symObjAddr: 0x1314, symBinAddr: 0x10001EBAC, symSize: 0x34 }
  - { offsetInCU: 0xF8D2, offset: 0x4822B, size: 0x8, addend: 0x0, symName: __ZN5Index11addDocumentER10HtmlParser, symObjAddr: 0x1348, symBinAddr: 0x10001EBE0, symSize: 0x9F8 }
  - { offsetInCU: 0xFAB6, offset: 0x4840F, size: 0x8, addend: 0x0, symName: __ZN6vectorI6stringE5beginEv, symObjAddr: 0x1D40, symBinAddr: 0x10001F5D8, symSize: 0x18 }
  - { offsetInCU: 0xFADC, offset: 0x48435, size: 0x8, addend: 0x0, symName: __ZN6vectorI6stringE3endEv, symObjAddr: 0x1D58, symBinAddr: 0x10001F5F0, symSize: 0x28 }
  - { offsetInCU: 0xFB02, offset: 0x4845B, size: 0x8, addend: 0x0, symName: __ZN9HashTableI6string11PostingListE4FindES0_S1_, symObjAddr: 0x1D80, symBinAddr: 0x10001F618, symSize: 0x270 }
  - { offsetInCU: 0xFB71, offset: 0x484CA, size: 0x8, addend: 0x0, symName: __ZN11PostingListC1E5Token, symObjAddr: 0x2024, symBinAddr: 0x10001F888, symSize: 0x34 }
  - { offsetInCU: 0xFBA9, offset: 0x48502, size: 0x8, addend: 0x0, symName: __ZN11PostingListD1Ev, symObjAddr: 0x2058, symBinAddr: 0x10001F8BC, symSize: 0x2C }
  - { offsetInCU: 0xFBD5, offset: 0x4852E, size: 0x8, addend: 0x0, symName: __ZN11PostingList15appendBodyDeltaERmhS0_, symObjAddr: 0x2084, symBinAddr: 0x10001F8E8, symSize: 0xA8 }
  - { offsetInCU: 0xFC35, offset: 0x4858E, size: 0x8, addend: 0x0, symName: __ZN11PostingList16appendTitleDeltaERmS0_, symObjAddr: 0x212C, symBinAddr: 0x10001F990, symSize: 0x84 }
  - { offsetInCU: 0xFC87, offset: 0x485E0, size: 0x8, addend: 0x0, symName: __ZN11PostingList14appendEODDeltaERmm, symObjAddr: 0x21F0, symBinAddr: 0x10001FA14, symSize: 0x9C }
  - { offsetInCU: 0xFCD8, offset: 0x48631, size: 0x8, addend: 0x0, symName: __Z10bitsNeededm, symObjAddr: 0x2340, symBinAddr: 0x10001FAB0, symSize: 0x7C }
  - { offsetInCU: 0xFD04, offset: 0x4865D, size: 0x8, addend: 0x0, symName: __Z4log2B7v160006ImENSt3__19enable_ifIXsr3std11is_integralIT_EE5valueEdE4typeES2_, symObjAddr: 0x23E8, symBinAddr: 0x10001FB58, symSize: 0x28 }
  - { offsetInCU: 0xFD3B, offset: 0x48694, size: 0x8, addend: 0x0, symName: __Z10formatUtf8RKm, symObjAddr: 0x2410, symBinAddr: 0x10001FB80, symSize: 0x348 }
  - { offsetInCU: 0xFDE6, offset: 0x4873F, size: 0x8, addend: 0x0, symName: __ZN11PostingList5DeltaERmm, symObjAddr: 0x2758, symBinAddr: 0x10001FEC8, symSize: 0x88 }
  - { offsetInCU: 0xFE3B, offset: 0x48794, size: 0x8, addend: 0x0, symName: __ZN6vectorI4PostE12emplace_backIJPcEEEvDpOT_, symObjAddr: 0x27E0, symBinAddr: 0x10001FF50, symSize: 0xB0 }
  - { offsetInCU: 0xFE7B, offset: 0x487D4, size: 0x8, addend: 0x0, symName: __ZN11PostingList10UpdateSeekEmm, symObjAddr: 0x2890, symBinAddr: 0x100020000, symSize: 0x90 }
  - { offsetInCU: 0xFEBF, offset: 0x48818, size: 0x8, addend: 0x0, symName: __ZNK6vectorI4PostE4sizeEv, symObjAddr: 0x2920, symBinAddr: 0x100020090, symSize: 0x18 }
  - { offsetInCU: 0xFEE5, offset: 0x4883E, size: 0x8, addend: 0x0, symName: __ZN9HashTableI6string11PostingListE9hashbasicEPKcRKm, symObjAddr: 0x29C0, symBinAddr: 0x1000200A8, symSize: 0x70 }
  - { offsetInCU: 0xFF24, offset: 0x4887D, size: 0x8, addend: 0x0, symName: __ZN11SerialTuple3KeyEv, symObjAddr: 0x2A30, symBinAddr: 0x100020118, symSize: 0x18 }
  - { offsetInCU: 0xFF4A, offset: 0x488A3, size: 0x8, addend: 0x0, symName: __ZNK12SerialString5c_strEv, symObjAddr: 0x2A48, symBinAddr: 0x100020130, symSize: 0x18 }
  - { offsetInCU: 0xFF70, offset: 0x488C9, size: 0x8, addend: 0x0, symName: __ZN11SerialTuple7getSizeEv, symObjAddr: 0x2A60, symBinAddr: 0x100020148, symSize: 0x18 }
  - { offsetInCU: 0xFF96, offset: 0x488EF, size: 0x8, addend: 0x0, symName: __ZN9HashTableI6string11PostingListE8OptimizeEd, symObjAddr: 0x2A78, symBinAddr: 0x100020160, symSize: 0x84 }
  - { offsetInCU: 0xFFE6, offset: 0x4893F, size: 0x8, addend: 0x0, symName: __ZN9HashTableI6string11PostingListE9MergeSortEP6BucketIS0_S1_E, symObjAddr: 0x2AFC, symBinAddr: 0x1000201E4, symSize: 0xB8 }
  - { offsetInCU: 0x10028, offset: 0x48981, size: 0x8, addend: 0x0, symName: __ZN9HashTableI6string11PostingListE5splitEP6BucketIS0_S1_E, symObjAddr: 0x2BB4, symBinAddr: 0x10002029C, symSize: 0xB8 }
  - { offsetInCU: 0x10086, offset: 0x489DF, size: 0x8, addend: 0x0, symName: __ZN9HashTableI6string11PostingListE5mergeEP6BucketIS0_S1_ES5_, symObjAddr: 0x2C6C, symBinAddr: 0x100020354, symSize: 0xDC }
  - { offsetInCU: 0x100C8, offset: 0x48A21, size: 0x8, addend: 0x0, symName: __ZNK11PostingListgtERKS_, symObjAddr: 0x2D48, symBinAddr: 0x100020430, symSize: 0x50 }
  - { offsetInCU: 0x100FC, offset: 0x48A55, size: 0x8, addend: 0x0, symName: __ZNK5Index7getDictEv, symObjAddr: 0x2D98, symBinAddr: 0x100020480, symSize: 0x18 }
  - { offsetInCU: 0x10122, offset: 0x48A7B, size: 0x8, addend: 0x0, symName: __ZNK5Index12getDocumentsEv, symObjAddr: 0x2DB0, symBinAddr: 0x100020498, symSize: 0x18 }
  - { offsetInCU: 0x10148, offset: 0x48AA1, size: 0x8, addend: 0x0, symName: __ZNK9HashTableI6string11PostingListE4sizeEv, symObjAddr: 0x2DE0, symBinAddr: 0x1000204B0, symSize: 0x18 }
  - { offsetInCU: 0x101A5, offset: 0x48AFE, size: 0x8, addend: 0x0, symName: __ZN20SerialDocumentVector13BytesRequiredEPK6vectorI6stringE, symObjAddr: 0x2DF8, symBinAddr: 0x1000204C8, symSize: 0x98 }
  - { offsetInCU: 0x10227, offset: 0x48B80, size: 0x8, addend: 0x0, symName: __ZN9IndexBlob13BytesRequiredEPK9HashTableI6string11PostingListE, symObjAddr: 0x2E90, symBinAddr: 0x100020560, symSize: 0xB0 }
  - { offsetInCU: 0x10294, offset: 0x48BED, size: 0x8, addend: 0x0, symName: __ZNK6vectorI6stringEixEm, symObjAddr: 0x2F40, symBinAddr: 0x100020610, symSize: 0xB0 }
  - { offsetInCU: 0x102C8, offset: 0x48C21, size: 0x8, addend: 0x0, symName: __ZNK6string4sizeEv, symObjAddr: 0x2FF0, symBinAddr: 0x1000206C0, symSize: 0x18 }
  - { offsetInCU: 0x102EE, offset: 0x48C47, size: 0x8, addend: 0x0, symName: __ZN12SerialString5WriteEPcPK6string, symObjAddr: 0x3008, symBinAddr: 0x1000206D8, symSize: 0xB0 }
  - { offsetInCU: 0x10349, offset: 0x48CA2, size: 0x8, addend: 0x0, symName: __ZN9IndexBlob11getDocumentEm, symObjAddr: 0x30B8, symBinAddr: 0x100020788, symSize: 0x5C }
  - { offsetInCU: 0x1037E, offset: 0x48CD7, size: 0x8, addend: 0x0, symName: __ZNK9HashTableI6string11PostingListE2atEm, symObjAddr: 0x3114, symBinAddr: 0x1000207E4, symSize: 0x24 }
  - { offsetInCU: 0x103B2, offset: 0x48D0B, size: 0x8, addend: 0x0, symName: __ZN11SerialTuple13BytesRequiredEPK6BucketI6string11PostingListE, symObjAddr: 0x3138, symBinAddr: 0x100020808, symSize: 0x68 }
  - { offsetInCU: 0x103E3, offset: 0x48D3C, size: 0x8, addend: 0x0, symName: __ZN11SerialTuple5WriteEPcmPK6BucketI6string11PostingListE, symObjAddr: 0x31A0, symBinAddr: 0x100020870, symSize: 0xE8 }
  - { offsetInCU: 0x1045A, offset: 0x48DB3, size: 0x8, addend: 0x0, symName: __ZNK6vectorI6stringE5beginEv, symObjAddr: 0x3288, symBinAddr: 0x100020958, symSize: 0x18 }
  - { offsetInCU: 0x10480, offset: 0x48DD9, size: 0x8, addend: 0x0, symName: __ZNK6vectorI6stringE3endEv, symObjAddr: 0x32A0, symBinAddr: 0x100020970, symSize: 0x28 }
  - { offsetInCU: 0x104A6, offset: 0x48DFF, size: 0x8, addend: 0x0, symName: __ZNK6string8capacityEv, symObjAddr: 0x32C8, symBinAddr: 0x100020998, symSize: 0x18 }
  - { offsetInCU: 0x104CC, offset: 0x48E25, size: 0x8, addend: 0x0, symName: __ZN12SerialString13BytesRequiredERK6string, symObjAddr: 0x3304, symBinAddr: 0x1000209B0, symSize: 0x44 }
  - { offsetInCU: 0x104FD, offset: 0x48E56, size: 0x8, addend: 0x0, symName: __ZN17SerialPostingList13BytesRequiredEPK11PostingList, symObjAddr: 0x3348, symBinAddr: 0x1000209F4, symSize: 0x164 }
  - { offsetInCU: 0x10558, offset: 0x48EB1, size: 0x8, addend: 0x0, symName: __ZNK11PostingList7getListEv, symObjAddr: 0x34AC, symBinAddr: 0x100020B58, symSize: 0x18 }
  - { offsetInCU: 0x1057E, offset: 0x48ED7, size: 0x8, addend: 0x0, symName: __ZN6vectorI4PostEC1ERKS1_, symObjAddr: 0x34C4, symBinAddr: 0x100020B70, symSize: 0x34 }
  - { offsetInCU: 0x105B6, offset: 0x48F0F, size: 0x8, addend: 0x0, symName: __ZNK11PostingList12getSeekIndexEv, symObjAddr: 0x34F8, symBinAddr: 0x100020BA4, symSize: 0x1C }
  - { offsetInCU: 0x105DC, offset: 0x48F35, size: 0x8, addend: 0x0, symName: __ZN6vectorI4PostEixEm, symObjAddr: 0x3514, symBinAddr: 0x100020BC0, symSize: 0xA8 }
  - { offsetInCU: 0x10610, offset: 0x48F69, size: 0x8, addend: 0x0, symName: __ZNK4Post6lengthEv, symObjAddr: 0x35BC, symBinAddr: 0x100020C68, symSize: 0x5C }
  - { offsetInCU: 0x10636, offset: 0x48F8F, size: 0x8, addend: 0x0, symName: __ZN6vectorI4PostED1Ev, symObjAddr: 0x3618, symBinAddr: 0x100020CC4, symSize: 0x2C }
  - { offsetInCU: 0x10660, offset: 0x48FB9, size: 0x8, addend: 0x0, symName: __ZN6vectorI4PostEC2ERKS1_, symObjAddr: 0x3644, symBinAddr: 0x100020CF0, symSize: 0x1F4 }
  - { offsetInCU: 0x106B4, offset: 0x4900D, size: 0x8, addend: 0x0, symName: __ZN4PostC1Ev, symObjAddr: 0x3838, symBinAddr: 0x100020EE4, symSize: 0x2C }
  - { offsetInCU: 0x106DE, offset: 0x49037, size: 0x8, addend: 0x0, symName: __ZN4PostD1Ev, symObjAddr: 0x3864, symBinAddr: 0x100020F10, symSize: 0x2C }
  - { offsetInCU: 0x10708, offset: 0x49061, size: 0x8, addend: 0x0, symName: __ZN4PostaSERKS_, symObjAddr: 0x3890, symBinAddr: 0x100020F3C, symSize: 0xBC }
  - { offsetInCU: 0x1074A, offset: 0x490A3, size: 0x8, addend: 0x0, symName: __ZN4PostC2Ev, symObjAddr: 0x394C, symBinAddr: 0x100020FF8, symSize: 0x18 }
  - { offsetInCU: 0x10774, offset: 0x490CD, size: 0x8, addend: 0x0, symName: __ZN4PostD2Ev, symObjAddr: 0x3964, symBinAddr: 0x100021010, symSize: 0x70 }
  - { offsetInCU: 0x1079E, offset: 0x490F7, size: 0x8, addend: 0x0, symName: __ZNK4Post9get_bytesEc, symObjAddr: 0x39D4, symBinAddr: 0x100021080, symSize: 0x64 }
  - { offsetInCU: 0x107EE, offset: 0x49147, size: 0x8, addend: 0x0, symName: __ZN6vectorI4PostED2Ev, symObjAddr: 0x3A38, symBinAddr: 0x1000210E4, symSize: 0xA8 }
  - { offsetInCU: 0x10818, offset: 0x49171, size: 0x8, addend: 0x0, symName: __ZN17SerialPostingList5WriteEPcmPK11PostingList, symObjAddr: 0x3AE0, symBinAddr: 0x10002118C, symSize: 0x2D0 }
  - { offsetInCU: 0x108F8, offset: 0x49251, size: 0x8, addend: 0x0, symName: __ZNK11PostingList11getDocCountEv, symObjAddr: 0x3DB0, symBinAddr: 0x10002145C, symSize: 0x18 }
  - { offsetInCU: 0x1091E, offset: 0x49277, size: 0x8, addend: 0x0, symName: __ZNK11PostingList7getTypeEv, symObjAddr: 0x3DC8, symBinAddr: 0x100021474, symSize: 0x94 }
  - { offsetInCU: 0x10944, offset: 0x4929D, size: 0x8, addend: 0x0, symName: __ZNK11PostingList12getSeekTableEv, symObjAddr: 0x3E70, symBinAddr: 0x10002151C, symSize: 0x18 }
  - { offsetInCU: 0x1096A, offset: 0x492C3, size: 0x8, addend: 0x0, symName: __ZNK4Post7getDataEv, symObjAddr: 0x3E88, symBinAddr: 0x100021534, symSize: 0x18 }
  - { offsetInCU: 0x10990, offset: 0x492E9, size: 0x8, addend: 0x0, symName: __ZNSt3__14__fs10filesystem4pathD2B7v160006Ev, symObjAddr: 0x3EA0, symBinAddr: 0x10002154C, symSize: 0x2C }
  - { offsetInCU: 0x109BA, offset: 0x49313, size: 0x8, addend: 0x0, symName: __ZNSt3__14__fs10filesystem18directory_iteratorC1B7v160006EOS2_, symObjAddr: 0x3ECC, symBinAddr: 0x100021578, symSize: 0x34 }
  - { offsetInCU: 0x109EE, offset: 0x49347, size: 0x8, addend: 0x0, symName: __ZNSt3__14__fs10filesystem18directory_iteratorC2B7v160006EOS2_, symObjAddr: 0x3F00, symBinAddr: 0x1000215AC, symSize: 0x34 }
  - { offsetInCU: 0x10A22, offset: 0x4937B, size: 0x8, addend: 0x0, symName: __ZNSt3__110shared_ptrINS_4__fs10filesystem12__dir_streamEEC1B7v160006EOS4_, symObjAddr: 0x3F34, symBinAddr: 0x1000215E0, symSize: 0x34 }
  - { offsetInCU: 0x10A5B, offset: 0x493B4, size: 0x8, addend: 0x0, symName: __ZNSt3__110shared_ptrINS_4__fs10filesystem12__dir_streamEEC2B7v160006EOS4_, symObjAddr: 0x3F68, symBinAddr: 0x100021614, symSize: 0x40 }
  - { offsetInCU: 0x10A94, offset: 0x493ED, size: 0x8, addend: 0x0, symName: __ZNSt3__14__fs10filesystem18directory_iteratorC2B7v160006ERKS2_, symObjAddr: 0x3FA8, symBinAddr: 0x100021654, symSize: 0x34 }
  - { offsetInCU: 0x10AC8, offset: 0x49421, size: 0x8, addend: 0x0, symName: __ZNSt3__110shared_ptrINS_4__fs10filesystem12__dir_streamEEC1B7v160006ERKS4_, symObjAddr: 0x3FDC, symBinAddr: 0x100021688, symSize: 0x34 }
  - { offsetInCU: 0x10B01, offset: 0x4945A, size: 0x8, addend: 0x0, symName: __ZNSt3__110shared_ptrINS_4__fs10filesystem12__dir_streamEEC2B7v160006ERKS4_, symObjAddr: 0x4010, symBinAddr: 0x1000216BC, symSize: 0x70 }
  - { offsetInCU: 0x10B3A, offset: 0x49493, size: 0x8, addend: 0x0, symName: __ZNSt3__119__shared_weak_count12__add_sharedB7v160006Ev, symObjAddr: 0x4080, symBinAddr: 0x10002172C, symSize: 0x24 }
  - { offsetInCU: 0x10B60, offset: 0x494B9, size: 0x8, addend: 0x0, symName: __ZNSt3__114__shared_count12__add_sharedB7v160006Ev, symObjAddr: 0x40A4, symBinAddr: 0x100021750, symSize: 0x28 }
  - { offsetInCU: 0x10B86, offset: 0x494DF, size: 0x8, addend: 0x0, symName: __ZNSt3__14__fs10filesystem18directory_iteratorD2B7v160006Ev, symObjAddr: 0x40FC, symBinAddr: 0x1000217A8, symSize: 0x2C }
  - { offsetInCU: 0x10BB0, offset: 0x49509, size: 0x8, addend: 0x0, symName: __ZNSt3__110shared_ptrINS_4__fs10filesystem12__dir_streamEED1B7v160006Ev, symObjAddr: 0x4128, symBinAddr: 0x1000217D4, symSize: 0x2C }
  - { offsetInCU: 0x10BDA, offset: 0x49533, size: 0x8, addend: 0x0, symName: __ZNSt3__110shared_ptrINS_4__fs10filesystem12__dir_streamEED2B7v160006Ev, symObjAddr: 0x4154, symBinAddr: 0x100021800, symSize: 0x54 }
  - { offsetInCU: 0x10C04, offset: 0x4955D, size: 0x8, addend: 0x0, symName: __ZNSt3__119__shared_weak_count16__release_sharedB7v160006Ev, symObjAddr: 0x41A8, symBinAddr: 0x100021854, symSize: 0x3C }
  - { offsetInCU: 0x10C2A, offset: 0x49583, size: 0x8, addend: 0x0, symName: __ZNSt3__114__shared_count16__release_sharedB7v160006Ev, symObjAddr: 0x41E4, symBinAddr: 0x100021890, symSize: 0x7C }
  - { offsetInCU: 0x10C50, offset: 0x495A9, size: 0x8, addend: 0x0, symName: __ZNSt3__14__fs10filesystem18directory_iteratorC1B7v160006Ev, symObjAddr: 0x4290, symBinAddr: 0x10002193C, symSize: 0x2C }
  - { offsetInCU: 0x10C7A, offset: 0x495D3, size: 0x8, addend: 0x0, symName: __ZNSt3__14__fs10filesystem18directory_iteratorC2B7v160006Ev, symObjAddr: 0x42BC, symBinAddr: 0x100021968, symSize: 0x2C }
  - { offsetInCU: 0x10CA4, offset: 0x495FD, size: 0x8, addend: 0x0, symName: __ZNSt3__110shared_ptrINS_4__fs10filesystem12__dir_streamEEC1B7v160006Ev, symObjAddr: 0x42E8, symBinAddr: 0x100021994, symSize: 0x2C }
  - { offsetInCU: 0x10CCE, offset: 0x49627, size: 0x8, addend: 0x0, symName: __ZNSt3__110shared_ptrINS_4__fs10filesystem12__dir_streamEEC2B7v160006Ev, symObjAddr: 0x4314, symBinAddr: 0x1000219C0, symSize: 0x1C }
  - { offsetInCU: 0x10CF8, offset: 0x49651, size: 0x8, addend: 0x0, symName: __ZNKSt3__110shared_ptrINS_4__fs10filesystem12__dir_streamEE3getB7v160006Ev, symObjAddr: 0x43A8, symBinAddr: 0x100021A54, symSize: 0x18 }
  - { offsetInCU: 0x10D23, offset: 0x4967C, size: 0x8, addend: 0x0, symName: __ZNSt3__112basic_stringIcNS_11char_traitsIcEENS_9allocatorIcEEEC1INS_17basic_string_viewIcS2_EEvEERKT_, symObjAddr: 0x43C0, symBinAddr: 0x100021A6C, symSize: 0x34 }
  - { offsetInCU: 0x10D68, offset: 0x496C1, size: 0x8, addend: 0x0, symName: __ZNSt3__14__fs10filesystem4pathC1B7v160006EONS_12basic_stringIcNS_11char_traitsIcEENS_9allocatorIcEEEENS2_6formatE, symObjAddr: 0x43F4, symBinAddr: 0x100021AA0, symSize: 0x3C }
  - { offsetInCU: 0x10DAC, offset: 0x49705, size: 0x8, addend: 0x0, symName: __ZNSt3__112basic_stringIcNS_11char_traitsIcEENS_9allocatorIcEEEC2INS_17basic_string_viewIcS2_EEvEERKT_, symObjAddr: 0x4430, symBinAddr: 0x100021ADC, symSize: 0x78 }
  - { offsetInCU: 0x10E13, offset: 0x4976C, size: 0x8, addend: 0x0, symName: __ZNKSt3__117basic_string_viewIcNS_11char_traitsIcEEE4dataB7v160006Ev, symObjAddr: 0x44E4, symBinAddr: 0x100021B54, symSize: 0x18 }
  - { offsetInCU: 0x10E39, offset: 0x49792, size: 0x8, addend: 0x0, symName: __ZNKSt3__117basic_string_viewIcNS_11char_traitsIcEEE4sizeB7v160006Ev, symObjAddr: 0x44FC, symBinAddr: 0x100021B6C, symSize: 0x18 }
  - { offsetInCU: 0x10E5F, offset: 0x497B8, size: 0x8, addend: 0x0, symName: __ZNSt3__14__fs10filesystem4pathC2B7v160006EONS_12basic_stringIcNS_11char_traitsIcEENS_9allocatorIcEEEENS2_6formatE, symObjAddr: 0x45E0, symBinAddr: 0x100021B84, symSize: 0x38 }
  - { offsetInCU: 0x10EA3, offset: 0x497FC, size: 0x8, addend: 0x0, symName: __ZNSt3__112basic_stringIcNS_11char_traitsIcEENS_9allocatorIcEEEC1B7v160006EOS5_, symObjAddr: 0x4618, symBinAddr: 0x100021BBC, symSize: 0x34 }
  - { offsetInCU: 0x10EDC, offset: 0x49835, size: 0x8, addend: 0x0, symName: __ZNSt3__112basic_stringIcNS_11char_traitsIcEENS_9allocatorIcEEEC2B7v160006EOS5_, symObjAddr: 0x464C, symBinAddr: 0x100021BF0, symSize: 0x84 }
  - { offsetInCU: 0x10F15, offset: 0x4986E, size: 0x8, addend: 0x0, symName: __ZNSt3__112basic_stringIcNS_11char_traitsIcEENS_9allocatorIcEEE14__default_initB7v160006Ev, symObjAddr: 0x46D0, symBinAddr: 0x100021C74, symSize: 0x40 }
  - { offsetInCU: 0x10F3B, offset: 0x49894, size: 0x8, addend: 0x0, symName: __ZNSt3__117__compressed_pairINS_12basic_stringIcNS_11char_traitsIcEENS_9allocatorIcEEE5__repES5_E5firstB7v160006Ev, symObjAddr: 0x4768, symBinAddr: 0x100021CC8, symSize: 0x24 }
  - { offsetInCU: 0x10F61, offset: 0x498BA, size: 0x8, addend: 0x0, symName: __ZNSt3__122__compressed_pair_elemINS_12basic_stringIcNS_11char_traitsIcEENS_9allocatorIcEEE5__repELi0ELb0EE5__getB7v160006Ev, symObjAddr: 0x478C, symBinAddr: 0x100021CEC, symSize: 0x14 }
  - { offsetInCU: 0x10F87, offset: 0x498E0, size: 0x8, addend: 0x0, symName: __ZNKSt3__112basic_stringIcNS_11char_traitsIcEENS_9allocatorIcEEE5c_strB7v160006Ev, symObjAddr: 0x47D8, symBinAddr: 0x100021D00, symSize: 0x24 }
  - { offsetInCU: 0x10FAD, offset: 0x49906, size: 0x8, addend: 0x0, symName: __ZN5IndexC2Ev, symObjAddr: 0x4CA8, symBinAddr: 0x100021D24, symSize: 0x90 }
  - { offsetInCU: 0x10FD7, offset: 0x49930, size: 0x8, addend: 0x0, symName: __ZN9HashTableI6string11PostingListEC1Ev, symObjAddr: 0x4D64, symBinAddr: 0x100021DB4, symSize: 0x2C }
  - { offsetInCU: 0x11001, offset: 0x4995A, size: 0x8, addend: 0x0, symName: __ZN9HashTableI6string11PostingListEC2Ev, symObjAddr: 0x4EA4, symBinAddr: 0x100021DE0, symSize: 0xE4 }
  - { offsetInCU: 0x11047, offset: 0x499A0, size: 0x8, addend: 0x0, symName: __ZN11PostingListC2E5Token, symObjAddr: 0x5154, symBinAddr: 0x100021EC4, symSize: 0x98 }
  - { offsetInCU: 0x1107F, offset: 0x499D8, size: 0x8, addend: 0x0, symName: __ZN6vectorI4PostEC1Ev, symObjAddr: 0x51EC, symBinAddr: 0x100021F5C, symSize: 0x2C }
  - { offsetInCU: 0x110A9, offset: 0x49A02, size: 0x8, addend: 0x0, symName: __ZNSt3__14pairImmEC1B7v160006ILb1ELPv0EEEv, symObjAddr: 0x5218, symBinAddr: 0x100021F88, symSize: 0x2C }
  - { offsetInCU: 0x110E3, offset: 0x49A3C, size: 0x8, addend: 0x0, symName: __ZN6vectorI4PostEC2Ev, symObjAddr: 0x5244, symBinAddr: 0x100021FB4, symSize: 0x30 }
  - { offsetInCU: 0x1110D, offset: 0x49A66, size: 0x8, addend: 0x0, symName: __ZN6vectorI4PostE5resetEv, symObjAddr: 0x5274, symBinAddr: 0x100021FE4, symSize: 0xB0 }
  - { offsetInCU: 0x11133, offset: 0x49A8C, size: 0x8, addend: 0x0, symName: __ZNSt3__14pairImmEC2B7v160006ILb1ELPv0EEEv, symObjAddr: 0x5324, symBinAddr: 0x100022094, symSize: 0x1C }
  - { offsetInCU: 0x1116D, offset: 0x49AC6, size: 0x8, addend: 0x0, symName: __ZN11PostingListD2Ev, symObjAddr: 0x5340, symBinAddr: 0x1000220B0, symSize: 0x30 }
  - { offsetInCU: 0x11199, offset: 0x49AF2, size: 0x8, addend: 0x0, symName: __ZNSt3__14pairImmEaSB7v160006EOS1_, symObjAddr: 0x53A8, symBinAddr: 0x100022118, symSize: 0x30 }
  - { offsetInCU: 0x111DD, offset: 0x49B36, size: 0x8, addend: 0x0, symName: __ZNSt3__14pairImmEC1B7v160006IRmRKmLPv0EEEOT_OT0_, symObjAddr: 0x53D8, symBinAddr: 0x100022148, symSize: 0x3C }
  - { offsetInCU: 0x1123B, offset: 0x49B94, size: 0x8, addend: 0x0, symName: __ZNSt3__14pairImmEC2B7v160006IRmRKmLPv0EEEOT_OT0_, symObjAddr: 0x5414, symBinAddr: 0x100022184, symSize: 0x34 }
  - { offsetInCU: 0x11299, offset: 0x49BF2, size: 0x8, addend: 0x0, symName: __ZN11PostingListC1ERKS_, symObjAddr: 0x552C, symBinAddr: 0x1000221B8, symSize: 0x34 }
  - { offsetInCU: 0x112CE, offset: 0x49C27, size: 0x8, addend: 0x0, symName: __ZN6BucketI6string11PostingListEC1ES0_S1_, symObjAddr: 0x5560, symBinAddr: 0x1000221EC, symSize: 0x3C }
  - { offsetInCU: 0x11316, offset: 0x49C6F, size: 0x8, addend: 0x0, symName: __ZN11PostingListC2ERKS_, symObjAddr: 0x559C, symBinAddr: 0x100022228, symSize: 0xBC }
  - { offsetInCU: 0x1134B, offset: 0x49CA4, size: 0x8, addend: 0x0, symName: __ZN6BucketI6string11PostingListEC2ES0_S1_, symObjAddr: 0x5658, symBinAddr: 0x1000222E4, symSize: 0xB4 }
  - { offsetInCU: 0x11393, offset: 0x49CEC, size: 0x8, addend: 0x0, symName: __ZN5TupleI6string11PostingListEC1ERKS0_S1_, symObjAddr: 0x570C, symBinAddr: 0x100022398, symSize: 0x3C }
  - { offsetInCU: 0x113DA, offset: 0x49D33, size: 0x8, addend: 0x0, symName: __ZN5TupleI6string11PostingListEC2ERKS0_S1_, symObjAddr: 0x5748, symBinAddr: 0x1000223D4, symSize: 0x74 }
  - { offsetInCU: 0x11421, offset: 0x49D7A, size: 0x8, addend: 0x0, symName: __ZNSt3__14__fs10filesystem4pathC2B7v160006IPKcvEERKT_NS2_6formatE, symObjAddr: 0x57BC, symBinAddr: 0x100022448, symSize: 0x68 }
  - { offsetInCU: 0x1146F, offset: 0x49DC8, size: 0x8, addend: 0x0, symName: __ZNSt3__112basic_stringIcNS_11char_traitsIcEENS_9allocatorIcEEEC1B7v160006Ev, symObjAddr: 0x5824, symBinAddr: 0x1000224B0, symSize: 0x2C }
  - { offsetInCU: 0x1149E, offset: 0x49DF7, size: 0x8, addend: 0x0, symName: __ZNSt3__14__fs10filesystem8_PathCVTIcE15__append_sourceB7v160006IPKcEEvRNS_12basic_stringIcNS_11char_traitsIcEENS_9allocatorIcEEEERKT_, symObjAddr: 0x5850, symBinAddr: 0x1000224DC, symSize: 0x54 }
  - { offsetInCU: 0x114DA, offset: 0x49E33, size: 0x8, addend: 0x0, symName: __ZNSt3__112basic_stringIcNS_11char_traitsIcEENS_9allocatorIcEEEC2B7v160006Ev, symObjAddr: 0x58A4, symBinAddr: 0x100022530, symSize: 0x4C }
  - { offsetInCU: 0x11504, offset: 0x49E5D, size: 0x8, addend: 0x0, symName: __ZNSt3__14__fs10filesystem8_PathCVTIcE14__append_rangeB7v160006IPKcEENS_9enable_ifIXsr27__is_cpp17_forward_iteratorIT_EE5valueEvE4typeERNS_12basic_stringIcNS_11char_traitsIcEENS_9allocatorIcEEEES8_S8_, symObjAddr: 0x58F0, symBinAddr: 0x10002257C, symSize: 0x34 }
  - { offsetInCU: 0x1154F, offset: 0x49EA8, size: 0x8, addend: 0x0, symName: __ZNSt3__14__fs10filesystem24__is_pathable_char_arrayIPKcS4_cLb1EE13__range_beginB7v160006ES4_, symObjAddr: 0x5924, symBinAddr: 0x1000225B0, symSize: 0x14 }
  - { offsetInCU: 0x11572, offset: 0x49ECB, size: 0x8, addend: 0x0, symName: __ZNSt3__14__fs10filesystem24__is_pathable_char_arrayIPKcS4_cLb1EE11__range_endB7v160006ES4_, symObjAddr: 0x5938, symBinAddr: 0x1000225C4, symSize: 0x50 }
  - { offsetInCU: 0x115C1, offset: 0x49F1A, size: 0x8, addend: 0x0, symName: __ZNSt3__112basic_stringIcNS_11char_traitsIcEENS_9allocatorIcEEE6appendB7v160006IPKcEENS_9enable_ifIXsr27__is_cpp17_forward_iteratorIT_EE5valueERS5_E4typeESA_SA_, symObjAddr: 0x5988, symBinAddr: 0x100022614, symSize: 0x1E4 }
  - { offsetInCU: 0x11670, offset: 0x49FC9, size: 0x8, addend: 0x0, symName: __ZNKSt3__112basic_stringIcNS_11char_traitsIcEENS_9allocatorIcEEE4sizeB7v160006Ev, symObjAddr: 0x5B6C, symBinAddr: 0x1000227F8, symSize: 0x54 }
  - { offsetInCU: 0x11696, offset: 0x49FEF, size: 0x8, addend: 0x0, symName: __ZNKSt3__112basic_stringIcNS_11char_traitsIcEENS_9allocatorIcEEE8capacityB7v160006Ev, symObjAddr: 0x5BC0, symBinAddr: 0x10002284C, symSize: 0x54 }
  - { offsetInCU: 0x116BC, offset: 0x4A015, size: 0x8, addend: 0x0, symName: __ZNKSt3__112basic_stringIcNS_11char_traitsIcEENS_9allocatorIcEEE15__addr_in_rangeB7v160006IRKcEEbOT_, symObjAddr: 0x5C40, symBinAddr: 0x1000228CC, symSize: 0x98 }
  - { offsetInCU: 0x11709, offset: 0x4A062, size: 0x8, addend: 0x0, symName: __ZNSt3__112basic_stringIcNS_11char_traitsIcEENS_9allocatorIcEEE13__get_pointerB7v160006Ev, symObjAddr: 0x5CD8, symBinAddr: 0x100022964, symSize: 0x54 }
  - { offsetInCU: 0x1172F, offset: 0x4A088, size: 0x8, addend: 0x0, symName: __ZNSt3__111char_traitsIcE6assignERcRKc, symObjAddr: 0x5D2C, symBinAddr: 0x1000229B8, symSize: 0x24 }
  - { offsetInCU: 0x11760, offset: 0x4A0B9, size: 0x8, addend: 0x0, symName: __ZNSt3__112basic_stringIcNS_11char_traitsIcEENS_9allocatorIcEEE10__set_sizeB7v160006Em, symObjAddr: 0x5D50, symBinAddr: 0x1000229DC, symSize: 0x54 }
  - { offsetInCU: 0x11795, offset: 0x4A0EE, size: 0x8, addend: 0x0, symName: __ZNSt3__112basic_stringIcNS_11char_traitsIcEENS_9allocatorIcEEE7__allocB7v160006Ev, symObjAddr: 0x5DA4, symBinAddr: 0x100022A30, symSize: 0x24 }
  - { offsetInCU: 0x117BB, offset: 0x4A114, size: 0x8, addend: 0x0, symName: __ZNSt3__112basic_stringIcNS_11char_traitsIcEENS_9allocatorIcEEEC1B7v160006IPKcvEET_S9_RKS4_, symObjAddr: 0x5DC8, symBinAddr: 0x100022A54, symSize: 0x44 }
  - { offsetInCU: 0x1181C, offset: 0x4A175, size: 0x8, addend: 0x0, symName: __ZNKSt3__112basic_stringIcNS_11char_traitsIcEENS_9allocatorIcEEE15__get_long_sizeB7v160006Ev, symObjAddr: 0x5E0C, symBinAddr: 0x100022A98, symSize: 0x28 }
  - { offsetInCU: 0x11842, offset: 0x4A19B, size: 0x8, addend: 0x0, symName: __ZNKSt3__112basic_stringIcNS_11char_traitsIcEENS_9allocatorIcEEE16__get_short_sizeB7v160006Ev, symObjAddr: 0x5E34, symBinAddr: 0x100022AC0, symSize: 0x34 }
  - { offsetInCU: 0x11868, offset: 0x4A1C1, size: 0x8, addend: 0x0, symName: __ZNKSt3__112basic_stringIcNS_11char_traitsIcEENS_9allocatorIcEEE14__get_long_capB7v160006Ev, symObjAddr: 0x5E68, symBinAddr: 0x100022AF4, symSize: 0x30 }
  - { offsetInCU: 0x1188E, offset: 0x4A1E7, size: 0x8, addend: 0x0, symName: __ZNSt3__112basic_stringIcNS_11char_traitsIcEENS_9allocatorIcEEE18__get_long_pointerB7v160006Ev, symObjAddr: 0x5EB8, symBinAddr: 0x100022B44, symSize: 0x28 }
  - { offsetInCU: 0x118B4, offset: 0x4A20D, size: 0x8, addend: 0x0, symName: __ZNSt3__112basic_stringIcNS_11char_traitsIcEENS_9allocatorIcEEE19__get_short_pointerB7v160006Ev, symObjAddr: 0x5EE0, symBinAddr: 0x100022B6C, symSize: 0x28 }
  - { offsetInCU: 0x118DA, offset: 0x4A233, size: 0x8, addend: 0x0, symName: __ZNSt3__114pointer_traitsIPcE10pointer_toB7v160006ERc, symObjAddr: 0x5F08, symBinAddr: 0x100022B94, symSize: 0x14 }
  - { offsetInCU: 0x118FD, offset: 0x4A256, size: 0x8, addend: 0x0, symName: __ZNSt3__112basic_stringIcNS_11char_traitsIcEENS_9allocatorIcEEE15__set_long_sizeB7v160006Em, symObjAddr: 0x5F1C, symBinAddr: 0x100022BA8, symSize: 0x38 }
  - { offsetInCU: 0x11932, offset: 0x4A28B, size: 0x8, addend: 0x0, symName: __ZNSt3__112basic_stringIcNS_11char_traitsIcEENS_9allocatorIcEEE16__set_short_sizeB7v160006Em, symObjAddr: 0x5F54, symBinAddr: 0x100022BE0, symSize: 0x78 }
  - { offsetInCU: 0x11967, offset: 0x4A2C0, size: 0x8, addend: 0x0, symName: __ZNSt3__117__compressed_pairINS_12basic_stringIcNS_11char_traitsIcEENS_9allocatorIcEEE5__repES5_E6secondB7v160006Ev, symObjAddr: 0x5FCC, symBinAddr: 0x100022C58, symSize: 0x24 }
  - { offsetInCU: 0x1198D, offset: 0x4A2E6, size: 0x8, addend: 0x0, symName: __ZNSt3__122__compressed_pair_elemINS_9allocatorIcEELi1ELb1EE5__getB7v160006Ev, symObjAddr: 0x5FF0, symBinAddr: 0x100022C7C, symSize: 0x14 }
  - { offsetInCU: 0x119B3, offset: 0x4A30C, size: 0x8, addend: 0x0, symName: __ZNSt3__112basic_stringIcNS_11char_traitsIcEENS_9allocatorIcEEEC2B7v160006IPKcvEET_S9_RKS4_, symObjAddr: 0x6004, symBinAddr: 0x100022C90, symSize: 0x58 }
  - { offsetInCU: 0x11A14, offset: 0x4A36D, size: 0x8, addend: 0x0, symName: __ZNSt3__117__compressed_pairINS_12basic_stringIcNS_11char_traitsIcEENS_9allocatorIcEEE5__repES5_EC1B7v160006INS_18__default_init_tagERKS5_EEOT_OT0_, symObjAddr: 0x605C, symBinAddr: 0x100022CE8, symSize: 0x3C }
  - { offsetInCU: 0x11A6C, offset: 0x4A3C5, size: 0x8, addend: 0x0, symName: __ZNSt3__112basic_stringIcNS_11char_traitsIcEENS_9allocatorIcEEE6__initIPKcEENS_9enable_ifIXsr27__is_cpp17_forward_iteratorIT_EE5valueEvE4typeESA_SA_, symObjAddr: 0x6098, symBinAddr: 0x100022D24, symSize: 0x158 }
  - { offsetInCU: 0x11AF6, offset: 0x4A44F, size: 0x8, addend: 0x0, symName: __ZNSt3__117__compressed_pairINS_12basic_stringIcNS_11char_traitsIcEENS_9allocatorIcEEE5__repES5_EC2B7v160006INS_18__default_init_tagERKS5_EEOT_OT0_, symObjAddr: 0x61F0, symBinAddr: 0x100022E7C, symSize: 0x40 }
  - { offsetInCU: 0x11B4E, offset: 0x4A4A7, size: 0x8, addend: 0x0, symName: __ZNSt3__122__compressed_pair_elemINS_9allocatorIcEELi1ELb1EEC2B7v160006IRKS2_vEEOT_, symObjAddr: 0x6230, symBinAddr: 0x100022EBC, symSize: 0x18 }
  - { offsetInCU: 0x11B90, offset: 0x4A4E9, size: 0x8, addend: 0x0, symName: __ZNKSt3__112basic_stringIcNS_11char_traitsIcEENS_9allocatorIcEEE8max_sizeB7v160006Ev, symObjAddr: 0x6248, symBinAddr: 0x100022ED4, symSize: 0xAC }
  - { offsetInCU: 0x11BE2, offset: 0x4A53B, size: 0x8, addend: 0x0, symName: __ZNKSt3__112basic_stringIcNS_11char_traitsIcEENS_9allocatorIcEEE20__throw_length_errorB7v160006Ev, symObjAddr: 0x62F4, symBinAddr: 0x100022F80, symSize: 0x1C }
  - { offsetInCU: 0x11C08, offset: 0x4A561, size: 0x8, addend: 0x0, symName: __ZNSt3__112basic_stringIcNS_11char_traitsIcEENS_9allocatorIcEEE13__fits_in_ssoB7v160006Em, symObjAddr: 0x6310, symBinAddr: 0x100022F9C, symSize: 0x20 }
  - { offsetInCU: 0x11C2C, offset: 0x4A585, size: 0x8, addend: 0x0, symName: __ZNSt3__112basic_stringIcNS_11char_traitsIcEENS_9allocatorIcEEE11__recommendB7v160006Em, symObjAddr: 0x6370, symBinAddr: 0x100022FFC, symSize: 0x84 }
  - { offsetInCU: 0x11C5F, offset: 0x4A5B8, size: 0x8, addend: 0x0, symName: __ZNSt3__112basic_stringIcNS_11char_traitsIcEENS_9allocatorIcEEE16__begin_lifetimeB7v160006EPcm, symObjAddr: 0x63F4, symBinAddr: 0x100023080, symSize: 0x14 }
  - { offsetInCU: 0x11C92, offset: 0x4A5EB, size: 0x8, addend: 0x0, symName: __ZNSt3__112basic_stringIcNS_11char_traitsIcEENS_9allocatorIcEEE18__set_long_pointerB7v160006EPc, symObjAddr: 0x6408, symBinAddr: 0x100023094, symSize: 0x38 }
  - { offsetInCU: 0x11CC7, offset: 0x4A620, size: 0x8, addend: 0x0, symName: __ZNSt3__112basic_stringIcNS_11char_traitsIcEENS_9allocatorIcEEE14__set_long_capB7v160006Em, symObjAddr: 0x6440, symBinAddr: 0x1000230CC, symSize: 0x70 }
  - { offsetInCU: 0x11D06, offset: 0x4A65F, size: 0x8, addend: 0x0, symName: __ZNSt3__116allocator_traitsINS_9allocatorIcEEE8max_sizeB7v160006IS2_vEEmRKS2_, symObjAddr: 0x64B0, symBinAddr: 0x10002313C, symSize: 0x24 }
  - { offsetInCU: 0x11D34, offset: 0x4A68D, size: 0x8, addend: 0x0, symName: __ZNKSt3__112basic_stringIcNS_11char_traitsIcEENS_9allocatorIcEEE7__allocB7v160006Ev, symObjAddr: 0x64D4, symBinAddr: 0x100023160, symSize: 0x24 }
  - { offsetInCU: 0x11D5A, offset: 0x4A6B3, size: 0x8, addend: 0x0, symName: __ZNKSt3__19allocatorIcE8max_sizeB7v160006Ev, symObjAddr: 0x650C, symBinAddr: 0x100023184, symSize: 0x14 }
  - { offsetInCU: 0x11D80, offset: 0x4A6D9, size: 0x8, addend: 0x0, symName: __ZNKSt3__117__compressed_pairINS_12basic_stringIcNS_11char_traitsIcEENS_9allocatorIcEEE5__repES5_E6secondB7v160006Ev, symObjAddr: 0x6520, symBinAddr: 0x100023198, symSize: 0x24 }
  - { offsetInCU: 0x11DA6, offset: 0x4A6FF, size: 0x8, addend: 0x0, symName: __ZNKSt3__122__compressed_pair_elemINS_9allocatorIcEELi1ELb1EE5__getB7v160006Ev, symObjAddr: 0x6544, symBinAddr: 0x1000231BC, symSize: 0x14 }
  - { offsetInCU: 0x11DCC, offset: 0x4A725, size: 0x8, addend: 0x0, symName: __ZNSt3__19allocatorIcE8allocateB7v160006Em, symObjAddr: 0x6644, symBinAddr: 0x1000231D0, symSize: 0x58 }
  - { offsetInCU: 0x11E00, offset: 0x4A759, size: 0x8, addend: 0x0, symName: __ZNSt3__112basic_stringIcNS_11char_traitsIcEENS_9allocatorIcEEE10__align_itB7v160006ILm16EEEmm, symObjAddr: 0x671C, symBinAddr: 0x100023228, symSize: 0x1C }
  - { offsetInCU: 0x11E3D, offset: 0x4A796, size: 0x8, addend: 0x0, symName: __ZNKSt3__16__lessIiiEclB7v160006ERKiS3_, symObjAddr: 0x728C, symBinAddr: 0x100023298, symSize: 0x34 }
  - { offsetInCU: 0x11E7F, offset: 0x4A7D8, size: 0x8, addend: 0x0, symName: __ZN6vectorI4PostE7reserveEm, symObjAddr: 0x72C0, symBinAddr: 0x1000232CC, symSize: 0x258 }
  - { offsetInCU: 0x11EE4, offset: 0x4A83D, size: 0x8, addend: 0x0, symName: __ZN4PostC1EPKc, symObjAddr: 0x7518, symBinAddr: 0x100023524, symSize: 0x34 }
  - { offsetInCU: 0x11F1C, offset: 0x4A875, size: 0x8, addend: 0x0, symName: __ZN4PostC2EPKc, symObjAddr: 0x754C, symBinAddr: 0x100023558, symSize: 0x9C }
  - { offsetInCU: 0x26, offset: 0x4A988, size: 0x8, addend: 0x0, symName: __Z10SizeOfUtf8t, symObjAddr: 0x0, symBinAddr: 0x100024338, symSize: 0x7C }
  - { offsetInCU: 0x6C, offset: 0x4A9CE, size: 0x8, addend: 0x0, symName: __Z15WriteCustomUtf8Phm, symObjAddr: 0x768, symBinAddr: 0x100024AA0, symSize: 0x150 }
  - { offsetInCU: 0x92, offset: 0x4A9F4, size: 0x8, addend: 0x0, symName: __ZZ15WriteCustomUtf8PhmE5masks, symObjAddr: 0xADD, symBinAddr: 0x100025AC0, symSize: 0x0 }
  - { offsetInCU: 0xFB, offset: 0x4AA5D, size: 0x8, addend: 0x0, symName: __Z13GetCustomUtf8PKh, symObjAddr: 0x8EC, symBinAddr: 0x100024C24, symSize: 0x170 }
  - { offsetInCU: 0x124, offset: 0x4AA86, size: 0x8, addend: 0x0, symName: __ZZ13GetCustomUtf8PKhE5masks, symObjAddr: 0xAE3, symBinAddr: 0x100025AC6, symSize: 0x0 }
  - { offsetInCU: 0x4B07, offset: 0x4F469, size: 0x8, addend: 0x0, symName: __Z10SizeOfUtf8t, symObjAddr: 0x0, symBinAddr: 0x100024338, symSize: 0x7C }
  - { offsetInCU: 0x4B33, offset: 0x4F495, size: 0x8, addend: 0x0, symName: __Z15IndicatedLengthPKh, symObjAddr: 0x7C, symBinAddr: 0x1000243B4, symSize: 0x120 }
  - { offsetInCU: 0x4B5F, offset: 0x4F4C1, size: 0x8, addend: 0x0, symName: __Z7GetUtf8PKh, symObjAddr: 0x19C, symBinAddr: 0x1000244D4, symSize: 0x1D4 }
  - { offsetInCU: 0x4B99, offset: 0x4F4FB, size: 0x8, addend: 0x0, symName: __Z7GetUtf8PKhS0_, symObjAddr: 0x370, symBinAddr: 0x1000246A8, symSize: 0x98 }
  - { offsetInCU: 0x4BE1, offset: 0x4F543, size: 0x8, addend: 0x0, symName: __Z8NextUtf8PKhS0_, symObjAddr: 0x408, symBinAddr: 0x100024740, symSize: 0x12C }
  - { offsetInCU: 0x4C45, offset: 0x4F5A7, size: 0x8, addend: 0x0, symName: __Z12PreviousUtf8PKh, symObjAddr: 0x534, symBinAddr: 0x10002486C, symSize: 0x50 }
  - { offsetInCU: 0x4C71, offset: 0x4F5D3, size: 0x8, addend: 0x0, symName: __Z9WriteUtf8Pht, symObjAddr: 0x584, symBinAddr: 0x1000248BC, symSize: 0x100 }
  - { offsetInCU: 0x4CAB, offset: 0x4F60D, size: 0x8, addend: 0x0, symName: __Z16SizeOfCustomUtf8m, symObjAddr: 0x684, symBinAddr: 0x1000249BC, symSize: 0xE4 }
  - { offsetInCU: 0x4CD7, offset: 0x4F639, size: 0x8, addend: 0x0, symName: __ZNSt16invalid_argumentC1B7v160006EPKc, symObjAddr: 0x8B8, symBinAddr: 0x100024BF0, symSize: 0x34 }
  - { offsetInCU: 0x4D0F, offset: 0x4F671, size: 0x8, addend: 0x0, symName: __ZNSt16invalid_argumentC2B7v160006EPKc, symObjAddr: 0xA5C, symBinAddr: 0x100024D94, symSize: 0x4C }
...
